Archive member included to satisfy reference by file (symbol)

C:\gnat\2018-arm-elf\arm-eabi\lib\gnat\ravenscar-sfp-stm32f429disco\adalib\libgnarl.a(a-reatim.o)
                              main.o (ada__real_time__Oadd)
C:\gnat\2018-arm-elf\arm-eabi\lib\gnat\ravenscar-sfp-stm32f429disco\adalib\libgnarl.a(a-retide.o)
                              main.o (ada__real_time__delays__delay_until)
C:\gnat\2018-arm-elf\arm-eabi\lib\gnat\ravenscar-sfp-stm32f429disco\adalib\libgnarl.a(s-bbbosu.o)
                              C:\gnat\2018-arm-elf\arm-eabi\lib\gnat\ravenscar-sfp-stm32f429disco\adalib\libgnarl.a(a-reatim.o) (system__bb__board_support__time__read_clock)
C:\gnat\2018-arm-elf\arm-eabi\lib\gnat\ravenscar-sfp-stm32f429disco\adalib\libgnarl.a(s-bbcppr.o)
                              C:\gnat\2018-arm-elf\arm-eabi\lib\gnat\ravenscar-sfp-stm32f429disco\adalib\libgnarl.a(s-bbbosu.o) (system__bb__cpu_primitives__install_trap_handler)
C:\gnat\2018-arm-elf\arm-eabi\lib\gnat\ravenscar-sfp-stm32f429disco\adalib\libgnarl.a(s-bbinte.o)
                              C:\gnat\2018-arm-elf\arm-eabi\lib\gnat\ravenscar-sfp-stm32f429disco\adalib\libgnarl.a(s-bbbosu.o) (system__bb__interrupts__interrupt_wrapper)
C:\gnat\2018-arm-elf\arm-eabi\lib\gnat\ravenscar-sfp-stm32f429disco\adalib\libgnarl.a(s-bbthqu.o)
                              C:\gnat\2018-arm-elf\arm-eabi\lib\gnat\ravenscar-sfp-stm32f429disco\adalib\libgnarl.a(s-bbinte.o) (system__bb__threads__queues__change_priority)
C:\gnat\2018-arm-elf\arm-eabi\lib\gnat\ravenscar-sfp-stm32f429disco\adalib\libgnarl.a(s-bbtime.o)
                              C:\gnat\2018-arm-elf\arm-eabi\lib\gnat\ravenscar-sfp-stm32f429disco\adalib\libgnarl.a(a-retide.o) (system__bb__time__delay_until)
C:\gnat\2018-arm-elf\arm-eabi\lib\gnat\ravenscar-sfp-stm32f429disco\adalib\libgnarl.a(s-bcpcst.o)
                              C:\gnat\2018-arm-elf\arm-eabi\lib\gnat\ravenscar-sfp-stm32f429disco\adalib\libgnarl.a(s-bbcppr.o) (system__bb__cpu_primitives__context_switch_trigger__initialize_context_switch)
C:\gnat\2018-arm-elf\arm-eabi\lib\gnat\ravenscar-sfp-stm32f429disco\adalib\libgnarl.a(s-taskin.o)
                              C:\gnat\2018-arm-elf\arm-eabi\lib\gnat\ravenscar-sfp-stm32f429disco\adalib\libgnarl.a(a-reatim.o) (system__tasking__initialize)
C:\gnat\2018-arm-elf\arm-eabi\lib\gnat\ravenscar-sfp-stm32f429disco\adalib\libgnarl.a(handler.o)
                              C:\gnat\2018-arm-elf\arm-eabi\lib\gnat\ravenscar-sfp-stm32f429disco\adalib\libgnarl.a(s-bbcppr.o) (__vectors)
C:\gnat\2018-arm-elf\arm-eabi\lib\gnat\ravenscar-sfp-stm32f429disco\adalib\libgnarl.a(s-bbprot.o)
                              C:\gnat\2018-arm-elf\arm-eabi\lib\gnat\ravenscar-sfp-stm32f429disco\adalib\libgnarl.a(s-bbtime.o) (system__bb__protection__leave_kernel)
C:\gnat\2018-arm-elf\arm-eabi\lib\gnat\ravenscar-sfp-stm32f429disco\adalib\libgnarl.a(s-bbthre.o)
                              C:\gnat\2018-arm-elf\arm-eabi\lib\gnat\ravenscar-sfp-stm32f429disco\adalib\libgnarl.a(s-taskin.o) (system__bb__threads__initialize)
C:\gnat\2018-arm-elf\arm-eabi\lib\gnat\ravenscar-sfp-stm32f429disco\adalib\libgnarl.a(s-bbtiev.o)
                              C:\gnat\2018-arm-elf\arm-eabi\lib\gnat\ravenscar-sfp-stm32f429disco\adalib\libgnarl.a(s-bbtime.o) (system__bb__timing_events__execute_expired_timing_events)
C:\gnat\2018-arm-elf\arm-eabi\lib\gnat\ravenscar-sfp-stm32f429disco\adalib\libgnarl.a(s-taprop.o)
                              C:\gnat\2018-arm-elf\arm-eabi\lib\gnat\ravenscar-sfp-stm32f429disco\adalib\libgnarl.a(s-taskin.o) (system__task_primitives__operations(int, double, long,...))
C:\gnat\2018-arm-elf\arm-eabi\lib\gnat\ravenscar-sfp-stm32f429disco\adalib\libgnarl.a(s-tasdeb.o)
                              C:\gnat\2018-arm-elf\arm-eabi\lib\gnat\ravenscar-sfp-stm32f429disco\adalib\libgnarl.a(s-taskin.o) (system__tasking__debug__last_task)
C:\gnat\2018-arm-elf\arm-eabi\lib\gnat\ravenscar-sfp-stm32f429disco\adalib\libgnat.a(a-elchha.o)
                              main.o (__gnat_last_chance_handler)
C:\gnat\2018-arm-elf\arm-eabi\lib\gnat\ravenscar-sfp-stm32f429disco\adalib\libgnat.a(a-except.o)
                              C:\Users\Milie\Desktop\EIDD\3A\TempsReelADA\base\game_support\stm32f4\obj\stm32f4-i2c.o (ada__exceptions__empty_c_string___UNC)
C:\gnat\2018-arm-elf\arm-eabi\lib\gnat\ravenscar-sfp-stm32f429disco\adalib\libgnat.a(breakpoint_handler-cortexm.o)
                              C:\gnat\2018-arm-elf\arm-eabi\lib\gnat\ravenscar-sfp-stm32f429disco\adalib\libgnarl.a(handler.o) (__gnat_bkpt_trap)
C:\gnat\2018-arm-elf\arm-eabi\lib\gnat\ravenscar-sfp-stm32f429disco\adalib\libgnat.a(g-io.o)
                              C:\gnat\2018-arm-elf\arm-eabi\lib\gnat\ravenscar-sfp-stm32f429disco\adalib\libgnat.a(a-elchha.o) (gnat__io__put__2)
C:\gnat\2018-arm-elf\arm-eabi\lib\gnat\ravenscar-sfp-stm32f429disco\adalib\libgnat.a(s-macres.o)
                              C:\gnat\2018-arm-elf\arm-eabi\lib\gnat\ravenscar-sfp-stm32f429disco\adalib\libgnat.a(a-elchha.o) (system__machine_reset__stop)
C:\gnat\2018-arm-elf\arm-eabi\lib\gnat\ravenscar-sfp-stm32f429disco\adalib\libgnat.a(s-memcop.o)
                              C:\Users\Milie\Desktop\EIDD\3A\TempsReelADA\base\game_support\stm32f4\obj\stm32f4-i2c.o (memcpy)
C:\gnat\2018-arm-elf\arm-eabi\lib\gnat\ravenscar-sfp-stm32f429disco\adalib\libgnat.a(s-memmov.o)
                              C:\Users\Milie\Desktop\EIDD\3A\TempsReelADA\base\game_support\obj\display-basic.o (memmove)
C:\gnat\2018-arm-elf\arm-eabi\lib\gnat\ravenscar-sfp-stm32f429disco\adalib\libgnat.a(s-memset.o)
                              C:\gnat\2018-arm-elf\arm-eabi\lib\gnat\ravenscar-sfp-stm32f429disco\adalib\libgnarl.a(s-bbcppr.o) (memset)
C:\gnat\2018-arm-elf\arm-eabi\lib\gnat\ravenscar-sfp-stm32f429disco\adalib\libgnat.a(s-parame.o)
                              C:\gnat\2018-arm-elf\arm-eabi\lib\gnat\ravenscar-sfp-stm32f429disco\adalib\libgnarl.a(s-taskin.o) (system__parameters__adjust_storage_size)
C:\gnat\2018-arm-elf\arm-eabi\lib\gnat\ravenscar-sfp-stm32f429disco\adalib\libgnat.a(s-secsta.o)
                              b__main.o (system__secondary_stack__ss_stackIP)
C:\gnat\2018-arm-elf\arm-eabi\lib\gnat\ravenscar-sfp-stm32f429disco\adalib\libgnat.a(s-textio.o)
                              C:\gnat\2018-arm-elf\arm-eabi\lib\gnat\ravenscar-sfp-stm32f429disco\adalib\libgnat.a(g-io.o) (system__text_io__initialize)
C:\gnat\2018-arm-elf\arm-eabi\lib\gnat\ravenscar-sfp-stm32f429disco\adalib\libgnat.a(start-rom.o)
                              (_start_rom)
C:\gnat\2018-arm-elf\arm-eabi\lib\gnat\ravenscar-sfp-stm32f429disco\adalib\libgnat.a(s-semiho.o)
                              C:\gnat\2018-arm-elf\arm-eabi\lib\gnat\ravenscar-sfp-stm32f429disco\adalib\libgnat.a(s-textio.o) (system__semihosting__put)
C:\gnat\2018-arm-elf\arm-eabi\lib\gnat\ravenscar-sfp-stm32f429disco\adalib\libgnat.a(setup_pll.o)
                              C:\gnat\2018-arm-elf\arm-eabi\lib\gnat\ravenscar-sfp-stm32f429disco\adalib\libgnat.a(start-rom.o) (_ada_setup_pll)
C:\gnat\2018-arm-elf\arm-eabi\lib\gnat\ravenscar-sfp-stm32f429disco\adalib\libgnat.a(start-common.o)
                              C:\gnat\2018-arm-elf\arm-eabi\lib\gnat\ravenscar-sfp-stm32f429disco\adalib\libgnat.a(start-rom.o) (_stm32_start_common)
C:\gnat\2018-arm-elf\arm-eabi\lib\gnat\ravenscar-sfp-stm32f429disco\adalib\libgnat.a(s-bbmcpa.o)
                              C:\gnat\2018-arm-elf\arm-eabi\lib\gnat\ravenscar-sfp-stm32f429disco\adalib\libgnat.a(setup_pll.o) (system__bb__mcu_parameters__pwr_initialize)
c:/gnat/2018-arm-elf/bin/../lib/gcc/arm-eabi/7.3.1/thumb/v7e-m/fpv4-sp/hard\libgcc.a(_arm_addsubdf3.o)
                              C:\Users\Milie\Desktop\EIDD\3A\TempsReelADA\base\game_support\obj\display-basic.o (__aeabi_dsub)
c:/gnat/2018-arm-elf/bin/../lib/gcc/arm-eabi/7.3.1/thumb/v7e-m/fpv4-sp/hard\libgcc.a(_arm_fixdfsi.o)
                              C:\Users\Milie\Desktop\EIDD\3A\TempsReelADA\base\game_support\obj\display-basic.o (__aeabi_d2iz)
c:/gnat/2018-arm-elf/bin/../lib/gcc/arm-eabi/7.3.1/thumb/v7e-m/fpv4-sp/hard\libgcc.a(_aeabi_ldivmod.o)
                              C:\gnat\2018-arm-elf\arm-eabi\lib\gnat\ravenscar-sfp-stm32f429disco\adalib\libgnarl.a(a-reatim.o) (__aeabi_ldivmod)
c:/gnat/2018-arm-elf/bin/../lib/gcc/arm-eabi/7.3.1/thumb/v7e-m/fpv4-sp/hard\libgcc.a(_aeabi_uldivmod.o)
                              C:\gnat\2018-arm-elf\arm-eabi\lib\gnat\ravenscar-sfp-stm32f429disco\adalib\libgnarl.a(a-reatim.o) (__aeabi_uldivmod)
c:/gnat/2018-arm-elf/bin/../lib/gcc/arm-eabi/7.3.1/thumb/v7e-m/fpv4-sp/hard\libgcc.a(_udivmoddi4.o)
                              c:/gnat/2018-arm-elf/bin/../lib/gcc/arm-eabi/7.3.1/thumb/v7e-m/fpv4-sp/hard\libgcc.a(_aeabi_ldivmod.o) (__udivmoddi4)
c:/gnat/2018-arm-elf/bin/../lib/gcc/arm-eabi/7.3.1/thumb/v7e-m/fpv4-sp/hard\libgcc.a(_dvmd_tls.o)
                              c:/gnat/2018-arm-elf/bin/../lib/gcc/arm-eabi/7.3.1/thumb/v7e-m/fpv4-sp/hard\libgcc.a(_aeabi_ldivmod.o) (__aeabi_ldiv0)

Memory Configuration

Name             Origin             Length             Attributes
flash            0x0000000008000000 0x0000000000200000 xr
sram123          0x0000000020000000 0x0000000000030000 xrw
ccm              0x0000000010000000 0x0000000000010000 rw
*default*        0x0000000000000000 0xffffffffffffffff

Linker script and memory map

LOAD main.o
LOAD b__main.o
LOAD C:\Users\Milie\Desktop\EIDD\3A\TempsReelADA\base\game_support\obj\display.o
LOAD C:\Users\Milie\Desktop\EIDD\3A\TempsReelADA\base\game_support\stm32f4\obj\stm32f4.o
LOAD C:\Users\Milie\Desktop\EIDD\3A\TempsReelADA\base\game_support\stm32f4\obj\stm32f4-dma.o
LOAD C:\Users\Milie\Desktop\EIDD\3A\TempsReelADA\base\game_support\stm32f4\obj\stm32f4-fmc.o
LOAD C:\Users\Milie\Desktop\EIDD\3A\TempsReelADA\base\game_support\stm32f4\obj\stm32f4-rcc.o
LOAD C:\Users\Milie\Desktop\EIDD\3A\TempsReelADA\base\game_support\stm32f4\obj\stm32f4-syscfg.o
LOAD C:\Users\Milie\Desktop\EIDD\3A\TempsReelADA\base\game_support\stm32f4\obj\stm32f4-gpio.o
LOAD C:\Users\Milie\Desktop\EIDD\3A\TempsReelADA\base\game_support\stm32f4\obj\stm32f4-i2c.o
LOAD C:\Users\Milie\Desktop\EIDD\3A\TempsReelADA\base\game_support\stm32f4\obj\stm32f4-spi.o
LOAD C:\Users\Milie\Desktop\EIDD\3A\TempsReelADA\base\game_support\stm32f4\obj\stm32f4-timers.o
LOAD C:\Users\Milie\Desktop\EIDD\3A\TempsReelADA\base\game_support\stm32f4\obj\stm32f4-usarts.o
LOAD C:\Users\Milie\Desktop\EIDD\3A\TempsReelADA\base\game_support\stm32f4\obj\stm32f429_discovery.o
LOAD C:\Users\Milie\Desktop\EIDD\3A\TempsReelADA\base\game_support\stm32f4\obj\stm32f4-sdram.o
LOAD C:\Users\Milie\Desktop\EIDD\3A\TempsReelADA\base\game_support\stm32f4\obj\stm32f4-lcd.o
LOAD C:\Users\Milie\Desktop\EIDD\3A\TempsReelADA\base\game_support\stm32f4\obj\stm32f4-touch_panel.o
LOAD C:\Users\Milie\Desktop\EIDD\3A\TempsReelADA\base\game_support\stm32f4\obj\screen_interface.o
LOAD C:\Users\Milie\Desktop\EIDD\3A\TempsReelADA\base\game_support\stm32f4\obj\fonts.o
LOAD C:\Users\Milie\Desktop\EIDD\3A\TempsReelADA\base\game_support\obj\display-basic.o
LOAD C:\gnat\2018-arm-elf\arm-eabi\lib\gnat\ravenscar-sfp-stm32f429disco\adalib\libgnarl.a
LOAD C:\gnat\2018-arm-elf\arm-eabi\lib\gnat\ravenscar-sfp-stm32f429disco\adalib\libgnat.a
START GROUP
LOAD c:/gnat/2018-arm-elf/bin/../lib/gcc/arm-eabi/7.3.1/thumb/v7e-m/fpv4-sp/hard\libgcc.a
END GROUP
                0x0000000000000000                __DYNAMIC = 0x0
                0x0000000000001000                _DEFAULT_STACK_SIZE = 0x1000

.text           0x0000000008000000    0x11ea8
 *(.vectors)
 .vectors       0x0000000008000000       0x14 C:\gnat\2018-arm-elf\arm-eabi\lib\gnat\ravenscar-sfp-stm32f429disco\adalib\libgnat.a(start-rom.o)
 *(.text .text.* .gnu.linkonce.t*)
 .text          0x0000000008000014      0x128 main.o
                0x0000000008000014                _ada_main
 .text          0x000000000800013c      0x18c b__main.o
                0x000000000800013c                ada_main__Tsec_default_sized_stacksBIP
                0x0000000008000180                adainit
                0x0000000008000290                main
                0x00000000080002ac                ada_main___elabb
 .text          0x00000000080002c8       0x2c C:\Users\Milie\Desktop\EIDD\3A\TempsReelADA\base\game_support\obj\display.o
                0x00000000080002c8                display__rgba_tIP
                0x00000000080002e0                display__mouse_positionIP
 .text          0x00000000080002f4       0x3c C:\Users\Milie\Desktop\EIDD\3A\TempsReelADA\base\game_support\stm32f4\obj\stm32f4.o
                0x00000000080002f4                stm32f4__Tbits_32x1BIP
                0x0000000008000308                stm32f4__Tbits_16x2BIP
                0x000000000800031c                stm32f4__Tbits_8x4BIP
 .text          0x0000000008000330     0x1270 C:\Users\Milie\Desktop\EIDD\3A\TempsReelADA\base\game_support\stm32f4\obj\stm32f4-dma.o
                0x0000000008000330                stm32f4__dma__Tstatus_flag_bit_numbersBIP
                0x0000000008000344                stm32f4__dma__stream_config_registerIP
                0x0000000008000358                stm32f4__dma__fifo_control_registerIP
                0x000000000800036c                stm32f4__dma__dma_streamIP
                0x0000000008000380                stm32f4__dma__Tdma_streamsBIP
                0x0000000008000394                stm32f4__dma__dma_controllerIP
                0x00000000080003a8                stm32f4__dma__Tinterrupt_selectionsBIP
                0x00000000080003bc                stm32f4__dma__dma_stream_configurationIP
                0x0000000008000418                stm32f4__dma__valid_addresses
                0x0000000008000460                stm32f4__dma__compatible_alignments
                0x0000000008000508                stm32f4__dma__enable
                0x000000000800055c                stm32f4__dma__enabled
                0x0000000008000594                stm32f4__dma__disable
                0x000000000800060c                stm32f4__dma__set_interrupt_enabler
                0x00000000080006d0                stm32f4__dma__enable_interrupt
                0x0000000008000714                stm32f4__dma__disable_interrupt
                0x0000000008000758                stm32f4__dma__interrupt_enabled
                0x0000000008000824                stm32f4__dma__start_transfer
                0x0000000008000860                stm32f4__dma__start_transfer_with_interrupts
                0x00000000080008c4                stm32f4__dma__configure_data_flow
                0x00000000080009cc                stm32f4__dma__abort_transfer
                0x0000000008000a58                stm32f4__dma__poll_for_completion
                0x0000000008000b5c                stm32f4__dma__clear_status
                0x0000000008000bd8                stm32f4__dma__clear_all_status
                0x0000000008000c60                stm32f4__dma__status
                0x0000000008000cd4                stm32f4__dma__set_counter
                0x0000000008000d24                stm32f4__dma__current_counter
                0x0000000008000d74                stm32f4__dma__double_buffered
                0x0000000008000db0                stm32f4__dma__circular_mode
                0x0000000008000dec                stm32f4__dma__configure
                0x0000000008000ff4                stm32f4__dma__reset
                0x000000000800110c                stm32f4__dma__peripheral_data_width
                0x0000000008001148                stm32f4__dma__memory_data_width
                0x0000000008001184                stm32f4__dma__transfer_direction
                0x00000000080011c0                stm32f4__dma__operating_mode
                0x0000000008001214                stm32f4__dma__priority
                0x0000000008001250                stm32f4__dma__current_memory_buffer
                0x000000000800128c                stm32f4__dma__set_memory_buffer
                0x000000000800131c                stm32f4__dma__select_current_memory_buffer
                0x0000000008001384                stm32f4__dma__configure_double_buffered_mode
                0x0000000008001448                stm32f4__dma__enable_double_buffered_mode
                0x00000000080014a4                stm32f4__dma__disable_double_buffered_mode
                0x0000000008001500                stm32f4__dma__selected_channel
                0x000000000800153c                stm32f4__dma__aligned
 .text          0x00000000080015a0      0x35c C:\Users\Milie\Desktop\EIDD\3A\TempsReelADA\base\game_support\stm32f4\obj\stm32f4-fmc.o
                0x00000000080015a0                stm32f4__fmc__Tfmc_bank1_registersBIP
                0x00000000080015b4                stm32f4__fmc__Tfmc_bank1e_registersBIP
                0x00000000080015c8                stm32f4__fmc__fmc_bank2_3_registersIP
                0x00000000080015dc                stm32f4__fmc__fmc_bank4_registersIP
                0x00000000080015f0                stm32f4__fmc__Tword_x2BIP
                0x0000000008001604                stm32f4__fmc__fmc_bank5_6_registersIP
                0x0000000008001618                stm32f4__fmc__fmc_sdram_timinginit_configIP
                0x000000000800162c                stm32f4__fmc__fmc_sdram_init_configIP
                0x0000000008001640                stm32f4__fmc__fmc_sdram_cmd_confIP
                0x0000000008001654                stm32f4__fmc__fmc_sdram_init
                0x0000000008001824                stm32f4__fmc__fmc_sdram_cmd
                0x0000000008001860                stm32f4__fmc__fmc_get_flag
                0x00000000080018cc                stm32f4__fmc__fmc_set_refresh_count
                0x00000000080018f0                stm32f4__fmc___elabs
 .text          0x00000000080018fc     0x1994 C:\Users\Milie\Desktop\EIDD\3A\TempsReelADA\base\game_support\stm32f4\obj\stm32f4-rcc.o
                0x00000000080018fc                stm32f4__rcc__rcc_registersIP
                0x0000000008001910                stm32f4__rcc__rcc_system_clocksIP
                0x0000000008001924                stm32f4__rcc__system_clock_frequencies
                0x0000000008001b7c                stm32f4__rcc__set_pllsai_factors
                0x0000000008001be0                stm32f4__rcc__enable_pllsai
                0x0000000008001c0c                stm32f4__rcc__gpioa_clock_enable
                0x0000000008001c28                stm32f4__rcc__gpiob_clock_enable
                0x0000000008001c44                stm32f4__rcc__gpioc_clock_enable
                0x0000000008001c60                stm32f4__rcc__gpiod_clock_enable
                0x0000000008001c7c                stm32f4__rcc__gpioe_clock_enable
                0x0000000008001c98                stm32f4__rcc__gpiof_clock_enable
                0x0000000008001cb4                stm32f4__rcc__gpiog_clock_enable
                0x0000000008001cd0                stm32f4__rcc__gpioh_clock_enable
                0x0000000008001cec                stm32f4__rcc__gpioi_clock_enable
                0x0000000008001d08                stm32f4__rcc__gpioj_clock_enable
                0x0000000008001d24                stm32f4__rcc__gpiok_clock_enable
                0x0000000008001d40                stm32f4__rcc__crc_clock_enable
                0x0000000008001d5c                stm32f4__rcc__bkpsram_clock_enable
                0x0000000008001d78                stm32f4__rcc__ccmdataramen_clock_enable
                0x0000000008001d94                stm32f4__rcc__dma1_clock_enable
                0x0000000008001db0                stm32f4__rcc__dma2_clock_enable
                0x0000000008001dcc                stm32f4__rcc__gpioa_clock_disable
                0x0000000008001de8                stm32f4__rcc__gpiob_clock_disable
                0x0000000008001e04                stm32f4__rcc__gpioc_clock_disable
                0x0000000008001e20                stm32f4__rcc__gpiod_clock_disable
                0x0000000008001e3c                stm32f4__rcc__gpioe_clock_disable
                0x0000000008001e58                stm32f4__rcc__gpiof_clock_disable
                0x0000000008001e74                stm32f4__rcc__gpiog_clock_disable
                0x0000000008001e90                stm32f4__rcc__gpioh_clock_disable
                0x0000000008001eac                stm32f4__rcc__gpioi_clock_disable
                0x0000000008001ec8                stm32f4__rcc__gpioj_clock_disable
                0x0000000008001ee4                stm32f4__rcc__gpiok_clock_disable
                0x0000000008001f00                stm32f4__rcc__crc_clock_disable
                0x0000000008001f1c                stm32f4__rcc__bkpsram_clock_disable
                0x0000000008001f38                stm32f4__rcc__ccmdataramen_clock_disable
                0x0000000008001f54                stm32f4__rcc__dma1_clock_disable
                0x0000000008001f70                stm32f4__rcc__dma2_clock_disable
                0x0000000008001f8c                stm32f4__rcc__rng_clock_enable
                0x0000000008001fa8                stm32f4__rcc__rng_clock_disable
                0x0000000008001fc4                stm32f4__rcc__tim2_clock_enable
                0x0000000008001fe0                stm32f4__rcc__tim3_clock_enable
                0x0000000008001ffc                stm32f4__rcc__tim4_clock_enable
                0x0000000008002018                stm32f4__rcc__tim5_clock_enable
                0x0000000008002034                stm32f4__rcc__tim6_clock_enable
                0x0000000008002050                stm32f4__rcc__tim7_clock_enable
                0x000000000800206c                stm32f4__rcc__tim12_clock_enable
                0x0000000008002088                stm32f4__rcc__tim13_clock_enable
                0x00000000080020a4                stm32f4__rcc__tim14_clock_enable
                0x00000000080020c0                stm32f4__rcc__wwdg_clock_enable
                0x00000000080020dc                stm32f4__rcc__spi2_clock_enable
                0x00000000080020f8                stm32f4__rcc__spi3_clock_enable
                0x0000000008002114                stm32f4__rcc__usart2_clock_enable
                0x0000000008002130                stm32f4__rcc__usart3_clock_enable
                0x000000000800214c                stm32f4__rcc__uart4_clock_enable
                0x0000000008002168                stm32f4__rcc__uart5_clock_enable
                0x0000000008002184                stm32f4__rcc__uart7_clock_enable
                0x00000000080021a0                stm32f4__rcc__uart8_clock_enable
                0x00000000080021bc                stm32f4__rcc__i2c1_clock_enable
                0x00000000080021d8                stm32f4__rcc__i2c2_clock_enable
                0x00000000080021f4                stm32f4__rcc__i2c3_clock_enable
                0x0000000008002210                stm32f4__rcc__pwr_clock_enable
                0x000000000800222c                stm32f4__rcc__tim2_clock_disable
                0x0000000008002248                stm32f4__rcc__tim3_clock_disable
                0x0000000008002264                stm32f4__rcc__tim4_clock_disable
                0x0000000008002280                stm32f4__rcc__tim5_clock_disable
                0x000000000800229c                stm32f4__rcc__tim6_clock_disable
                0x00000000080022b8                stm32f4__rcc__tim7_clock_disable
                0x00000000080022d4                stm32f4__rcc__tim12_clock_disable
                0x00000000080022f0                stm32f4__rcc__tim13_clock_disable
                0x000000000800230c                stm32f4__rcc__tim14_clock_disable
                0x0000000008002328                stm32f4__rcc__wwdg_clock_disable
                0x0000000008002344                stm32f4__rcc__spi2_clock_disable
                0x0000000008002360                stm32f4__rcc__spi3_clock_disable
                0x000000000800237c                stm32f4__rcc__usart2_clock_disable
                0x0000000008002398                stm32f4__rcc__usart3_clock_disable
                0x00000000080023b4                stm32f4__rcc__uart4_clock_disable
                0x00000000080023d0                stm32f4__rcc__uart5_clock_disable
                0x00000000080023ec                stm32f4__rcc__uart7_clock_disable
                0x0000000008002408                stm32f4__rcc__uart8_clock_disable
                0x0000000008002424                stm32f4__rcc__i2c1_clock_disable
                0x0000000008002440                stm32f4__rcc__i2c2_clock_disable
                0x000000000800245c                stm32f4__rcc__i2c3_clock_disable
                0x0000000008002478                stm32f4__rcc__pwr_clock_disable
                0x0000000008002494                stm32f4__rcc__tim1_clock_enable
                0x00000000080024b0                stm32f4__rcc__tim8_clock_enable
                0x00000000080024cc                stm32f4__rcc__usart1_clock_enable
                0x00000000080024e8                stm32f4__rcc__usart6_clock_enable
                0x0000000008002504                stm32f4__rcc__adc1_clock_enable
                0x0000000008002520                stm32f4__rcc__sdio_clock_enable
                0x000000000800253c                stm32f4__rcc__spi1_clock_enable
                0x0000000008002558                stm32f4__rcc__spi4_clock_enable
                0x0000000008002574                stm32f4__rcc__syscfg_clock_enable
                0x0000000008002590                stm32f4__rcc__tim9_clock_enable
                0x00000000080025ac                stm32f4__rcc__tim10_clock_enable
                0x00000000080025c8                stm32f4__rcc__tim11_clock_enable
                0x00000000080025e4                stm32f4__rcc__spi5_clock_enable
                0x0000000008002600                stm32f4__rcc__spi6_clock_enable
                0x000000000800261c                stm32f4__rcc__ltdc_clock_enable
                0x0000000008002638                stm32f4__rcc__tim1_clock_disable
                0x0000000008002654                stm32f4__rcc__tim8_clock_disable
                0x0000000008002670                stm32f4__rcc__usart1_clock_disable
                0x000000000800268c                stm32f4__rcc__usart6_clock_disable
                0x00000000080026a8                stm32f4__rcc__adc1_clock_disable
                0x00000000080026c4                stm32f4__rcc__sdio_clock_disable
                0x00000000080026e0                stm32f4__rcc__spi1_clock_disable
                0x00000000080026fc                stm32f4__rcc__spi4_clock_disable
                0x0000000008002718                stm32f4__rcc__syscfg_clock_disable
                0x0000000008002734                stm32f4__rcc__tim9_clock_disable
                0x0000000008002750                stm32f4__rcc__tim10_clock_disable
                0x000000000800276c                stm32f4__rcc__tim11_clock_disable
                0x0000000008002788                stm32f4__rcc__spi5_clock_disable
                0x00000000080027a4                stm32f4__rcc__spi6_clock_disable
                0x00000000080027c0                stm32f4__rcc__ltdc_clock_disable
                0x00000000080027dc                stm32f4__rcc__ahb1_force_reset
                0x00000000080027f4                stm32f4__rcc__gpioa_force_reset
                0x0000000008002810                stm32f4__rcc__gpiob_force_reset
                0x000000000800282c                stm32f4__rcc__gpioc_force_reset
                0x0000000008002848                stm32f4__rcc__gpiod_force_reset
                0x0000000008002864                stm32f4__rcc__gpioe_force_reset
                0x0000000008002880                stm32f4__rcc__gpioh_force_reset
                0x000000000800289c                stm32f4__rcc__crc_force_reset
                0x00000000080028b8                stm32f4__rcc__dma1_force_reset
                0x00000000080028d4                stm32f4__rcc__dma2_force_reset
                0x00000000080028f0                stm32f4__rcc__ahb1_release_reset
                0x0000000008002908                stm32f4__rcc__gpioa_release_reset
                0x0000000008002924                stm32f4__rcc__gpiob_release_reset
                0x0000000008002940                stm32f4__rcc__gpioc_release_reset
                0x000000000800295c                stm32f4__rcc__gpiod_release_reset
                0x0000000008002978                stm32f4__rcc__gpioe_release_reset
                0x0000000008002994                stm32f4__rcc__gpiof_release_reset
                0x00000000080029b0                stm32f4__rcc__gpiog_release_reset
                0x00000000080029cc                stm32f4__rcc__gpioh_release_reset
                0x00000000080029e8                stm32f4__rcc__gpioi_release_reset
                0x0000000008002a04                stm32f4__rcc__crc_release_reset
                0x0000000008002a20                stm32f4__rcc__dma1_release_reset
                0x0000000008002a3c                stm32f4__rcc__dma2_release_reset
                0x0000000008002a58                stm32f4__rcc__ahb2_force_reset
                0x0000000008002a70                stm32f4__rcc__otgfs_force_reset
                0x0000000008002a8c                stm32f4__rcc__ahb2_release_reset
                0x0000000008002aa4                stm32f4__rcc__otgfs_release_reset
                0x0000000008002ac0                stm32f4__rcc__rng_force_reset
                0x0000000008002adc                stm32f4__rcc__rng_release_reset
                0x0000000008002af8                stm32f4__rcc__apb1_force_reset
                0x0000000008002b10                stm32f4__rcc__tim2_force_reset
                0x0000000008002b2c                stm32f4__rcc__tim3_force_reset
                0x0000000008002b48                stm32f4__rcc__tim4_force_reset
                0x0000000008002b64                stm32f4__rcc__tim5_force_reset
                0x0000000008002b80                stm32f4__rcc__tim6_force_reset
                0x0000000008002b9c                stm32f4__rcc__tim7_force_reset
                0x0000000008002bb8                stm32f4__rcc__tim12_force_reset
                0x0000000008002bd4                stm32f4__rcc__tim13_force_reset
                0x0000000008002bf0                stm32f4__rcc__tim14_force_reset
                0x0000000008002c0c                stm32f4__rcc__wwdg_force_reset
                0x0000000008002c28                stm32f4__rcc__spi2_force_reset
                0x0000000008002c44                stm32f4__rcc__spi3_force_reset
                0x0000000008002c60                stm32f4__rcc__usart2_force_reset
                0x0000000008002c7c                stm32f4__rcc__i2c1_force_reset
                0x0000000008002c98                stm32f4__rcc__i2c2_force_reset
                0x0000000008002cb4                stm32f4__rcc__i2c3_force_reset
                0x0000000008002cd0                stm32f4__rcc__pwr_force_reset
                0x0000000008002cec                stm32f4__rcc__apb1_release_reset
                0x0000000008002d04                stm32f4__rcc__tim2_release_reset
                0x0000000008002d20                stm32f4__rcc__tim3_release_reset
                0x0000000008002d3c                stm32f4__rcc__tim4_release_reset
                0x0000000008002d58                stm32f4__rcc__tim5_release_reset
                0x0000000008002d74                stm32f4__rcc__tim6_release_reset
                0x0000000008002d90                stm32f4__rcc__tim7_release_reset
                0x0000000008002dac                stm32f4__rcc__tim12_release_reset
                0x0000000008002dc8                stm32f4__rcc__tim13_release_reset
                0x0000000008002de4                stm32f4__rcc__tim14_release_reset
                0x0000000008002e00                stm32f4__rcc__wwdg_release_reset
                0x0000000008002e1c                stm32f4__rcc__spi2_release_reset
                0x0000000008002e38                stm32f4__rcc__spi3_release_reset
                0x0000000008002e54                stm32f4__rcc__usart2_release_reset
                0x0000000008002e70                stm32f4__rcc__i2c1_release_reset
                0x0000000008002e8c                stm32f4__rcc__i2c2_release_reset
                0x0000000008002ea8                stm32f4__rcc__i2c3_release_reset
                0x0000000008002ec4                stm32f4__rcc__pwr_release_reset
                0x0000000008002ee0                stm32f4__rcc__apb2_force_reset
                0x0000000008002ef8                stm32f4__rcc__tim1_force_reset
                0x0000000008002f14                stm32f4__rcc__tim8_force_reset
                0x0000000008002f30                stm32f4__rcc__usart1_force_reset
                0x0000000008002f4c                stm32f4__rcc__usart6_force_reset
                0x0000000008002f68                stm32f4__rcc__adc_force_reset
                0x0000000008002f84                stm32f4__rcc__sdio_force_reset
                0x0000000008002fa0                stm32f4__rcc__spi1_force_reset
                0x0000000008002fbc                stm32f4__rcc__spi4_force_reset
                0x0000000008002fd8                stm32f4__rcc__syscfg_force_reset
                0x0000000008002ff4                stm32f4__rcc__tim9_force_reset
                0x0000000008003010                stm32f4__rcc__tim10_force_reset
                0x000000000800302c                stm32f4__rcc__tim11_force_reset
                0x0000000008003048                stm32f4__rcc__spi5_force_reset
                0x0000000008003064                stm32f4__rcc__spi6_force_reset
                0x0000000008003080                stm32f4__rcc__ltdc_force_reset
                0x000000000800309c                stm32f4__rcc__apb2_release_reset
                0x00000000080030b4                stm32f4__rcc__tim1_release_reset
                0x00000000080030d0                stm32f4__rcc__tim8_release_reset
                0x00000000080030ec                stm32f4__rcc__usart1_release_reset
                0x0000000008003108                stm32f4__rcc__usart6_release_reset
                0x0000000008003124                stm32f4__rcc__adc_release_reset
                0x0000000008003140                stm32f4__rcc__sdio_release_reset
                0x000000000800315c                stm32f4__rcc__spi1_release_reset
                0x0000000008003178                stm32f4__rcc__spi4_release_reset
                0x0000000008003194                stm32f4__rcc__syscfg_release_reset
                0x00000000080031b0                stm32f4__rcc__tim9_release_reset
                0x00000000080031cc                stm32f4__rcc__tim10_release_reset
                0x00000000080031e8                stm32f4__rcc__tim11_release_reset
                0x0000000008003204                stm32f4__rcc__spi5_release_reset
                0x0000000008003220                stm32f4__rcc__spi6_release_reset
                0x000000000800323c                stm32f4__rcc__ltdc_release_reset
                0x0000000008003258                stm32f4__rcc__fsmc_clock_enable
                0x0000000008003274                stm32f4__rcc__fsmc_clock_disable
 .text          0x0000000008003290      0x468 C:\Users\Milie\Desktop\EIDD\3A\TempsReelADA\base\game_support\stm32f4\obj\stm32f4-syscfg.o
                0x0000000008003290                stm32f4__syscfg__Tboolean32BIP
                0x00000000080032a4                stm32f4__syscfg__exti_registersIP
                0x00000000080032b8                stm32f4__syscfg__Texti_n_listBIP
                0x00000000080032cc                stm32f4__syscfg__exti_control_registerIP
                0x00000000080032e4                stm32f4__syscfg__Texti_control_registersBIP
                0x00000000080032f8                stm32f4__syscfg__syscfg_registersIP
                0x000000000800330c                stm32f4__syscfg__connect_external_interrupt
                0x00000000080033b8                stm32f4__syscfg__connect_external_interrupt__2
                0x00000000080033fc                stm32f4__syscfg__set_external_trigger
                0x0000000008003494                stm32f4__syscfg__set_external_trigger__2
                0x00000000080034dc                stm32f4__syscfg__select_trigger_edge
                0x0000000008003598                stm32f4__syscfg__select_trigger_edge__2
                0x00000000080035e0                stm32f4__syscfg__clear_external_interrupt
                0x0000000008003628                stm32f4__syscfg__as_gpio_port_id
 .text          0x00000000080036f8      0x938 C:\Users\Milie\Desktop\EIDD\3A\TempsReelADA\base\game_support\stm32f4\obj\stm32f4-gpio.o
                0x00000000080036f8                stm32f4__gpio__gpio_pinRP
                0x00000000080037c8                stm32f4__gpio__gpio_pinsIP
                0x00000000080037dc                stm32f4__gpio__Tpin_modes_registerBIP
                0x00000000080037f0                stm32f4__gpio__Toutput_types_registerBIP
                0x0000000008003804                stm32f4__gpio__Toutput_speeds_registerBIP
                0x0000000008003818                stm32f4__gpio__Tresistors_registerBIP
                0x000000000800382c                stm32f4__gpio__Tbits_16x4BIP
                0x0000000008003840                stm32f4__gpio__Treserved_246x32BIP
                0x0000000008003854                stm32f4__gpio__gpio_portIP
                0x0000000008003868                stm32f4__gpio__gpio_port_configurationIP
                0x0000000008003880                stm32f4__gpio__any_set
                0x00000000080038e4                stm32f4__gpio__set__2
                0x0000000008003918                stm32f4__gpio__all_set
                0x000000000800397c                stm32f4__gpio__set__3
                0x0000000008003998                stm32f4__gpio__set__4
                0x00000000080039e8                stm32f4__gpio__clear
                0x0000000008003a04                stm32f4__gpio__clear__2
                0x0000000008003a54                stm32f4__gpio__toggle
                0x0000000008003a7c                stm32f4__gpio__toggle__2
                0x0000000008003ad4                stm32f4__gpio__locked
                0x0000000008003b08                stm32f4__gpio__lock
                0x0000000008003b3c                stm32f4__gpio__lock__2
                0x0000000008003b80                stm32f4__gpio__configure_io__2
                0x0000000008003d08                stm32f4__gpio__configure_io
                0x0000000008003e4c                stm32f4__gpio__current_input
                0x0000000008003e68                stm32f4__gpio__current_output
                0x0000000008003e84                stm32f4__gpio__write_output
                0x0000000008003ea0                stm32f4__gpio__configure_alternate_function
                0x0000000008003f64                stm32f4__gpio__configure_alternate_function__2
                0x0000000008003fac                stm32f4__gpio__configure_trigger
                0x0000000008003fe8                stm32f4__gpio__configure_trigger__2
 .text          0x0000000008004030      0xa00 C:\Users\Milie\Desktop\EIDD\3A\TempsReelADA\base\game_support\stm32f4\obj\stm32f4-i2c.o
                0x0000000008004030                stm32f4__i2c__i2c_portIP
                0x0000000008004044                stm32f4__i2c__i2c_device_modeRP
                0x0000000008004080                stm32f4__i2c__i2c_duty_cycleRP
                0x00000000080040bc                stm32f4__i2c__i2c_acknowledgementRP
                0x00000000080040f4                stm32f4__i2c__i2c_acknowledge_addressRP
                0x000000000800412c                stm32f4__i2c__i2c_interruptRP
                0x000000000800416c                stm32f4__i2c__configure
                0x0000000008004328                stm32f4__i2c__set_state
                0x0000000008004368                stm32f4__i2c__port_enabled
                0x0000000008004394                stm32f4__i2c__generate_start
                0x00000000080043d4                stm32f4__i2c__generate_stop
                0x0000000008004414                stm32f4__i2c__send_7bit_address
                0x0000000008004450                stm32f4__i2c__status
                0x00000000080044fc                stm32f4__i2c__clear_status
                0x0000000008004540                stm32f4__i2c__clear_address_sent_status
                0x0000000008004584                stm32f4__i2c__clear_stop_detection_status
                0x00000000080045b0                stm32f4__i2c__wait_for_state
                0x0000000008004788                stm32f4__i2c__send_data
                0x00000000080047a8                stm32f4__i2c__read_data
                0x00000000080047d4                stm32f4__i2c__set_ack_config
                0x0000000008004814                stm32f4__i2c__set_nack_config
                0x0000000008004854                stm32f4__i2c__start
                0x00000000080048c8                stm32f4__i2c__read_ack
                0x00000000080048fc                stm32f4__i2c__read_nack
                0x0000000008004938                stm32f4__i2c__write
                0x0000000008004990                stm32f4__i2c__stop
                0x00000000080049a8                stm32f4__i2c__enable_interrupt
                0x00000000080049d0                stm32f4__i2c__disable_interrupt
                0x00000000080049fc                stm32f4__i2c__enabled__2
 .text          0x0000000008004a30      0x448 C:\Users\Milie\Desktop\EIDD\3A\TempsReelADA\base\game_support\stm32f4\obj\stm32f4-spi.o
                0x0000000008004a30                stm32f4__spi__spi_control_registerIP
                0x0000000008004a44                stm32f4__spi__spi_control_register2IP
                0x0000000008004a58                stm32f4__spi__spi_status_registerIP
                0x0000000008004a6c                stm32f4__spi__spi_i2s_config_registerIP
                0x0000000008004a80                stm32f4__spi__spi_i2s_prescale_registerIP
                0x0000000008004a94                stm32f4__spi__spi_portIP
                0x0000000008004aa8                stm32f4__spi__spi_configurationIP
                0x0000000008004abc                stm32f4__spi__configure
                0x0000000008004c4c                stm32f4__spi__enable
                0x0000000008004c74                stm32f4__spi__disable
                0x0000000008004c9c                stm32f4__spi__enabled
                0x0000000008004cc8                stm32f4__spi__send
                0x0000000008004ce4                stm32f4__spi__data
                0x0000000008004d00                stm32f4__spi__send__2
                0x0000000008004d20                stm32f4__spi__data__2
                0x0000000008004d4c                stm32f4__spi__tx_is_empty
                0x0000000008004d6c                stm32f4__spi__rx_is_empty
                0x0000000008004d98                stm32f4__spi__busy
                0x0000000008004db8                stm32f4__spi__channel_side_indicated
                0x0000000008004dd8                stm32f4__spi__underrun_indicated
                0x0000000008004df8                stm32f4__spi__crc_error_indicated
                0x0000000008004e18                stm32f4__spi__mode_fault_indicated
                0x0000000008004e38                stm32f4__spi__overrun_indicated
                0x0000000008004e58                stm32f4__spi__frame_fmt_error_indicated
 .text          0x0000000008004e78     0x3730 C:\Users\Milie\Desktop\EIDD\3A\TempsReelADA\base\game_support\stm32f4\obj\stm32f4-timers.o
                0x0000000008004e78                stm32f4__timers__timer_interruptRP
                0x0000000008004ee8                stm32f4__timers__timer_event_sourceRP
                0x0000000008004f58                stm32f4__timers__timer_status_flagRP
                0x0000000008004ff8                stm32f4__timers__timer_dma_sourceRP
                0x000000000800506c                stm32f4__timers__timer_counter_alignment_modeRP
                0x00000000080050c8                stm32f4__timers__timx_cr1IP
                0x00000000080050dc                stm32f4__timers__timx_cr2IP
                0x00000000080050f0                stm32f4__timers__timx_smcrIP
                0x0000000008005104                stm32f4__timers__channel_input_descriptorIP
                0x000000000800511c                stm32f4__timers__channel_output_descriptorIP
                0x0000000008005134                stm32f4__timers__io_descriptorD2
                0x0000000008005158                stm32f4__timers__io_descriptorD3
                0x000000000800517c                stm32f4__timers__io_descriptorEQ
                0x0000000008005280                stm32f4__timers__io_descriptorIP
                0x00000000080052ac                stm32f4__timers__Ttimx_ccmrx_lower_halfBIP
                0x00000000080052f8                stm32f4__timers__timx_ccmrxIP
                0x0000000008005318                stm32f4__timers__Ttimx_ccmr_pairBIP
                0x0000000008005354                stm32f4__timers__single_cceIP
                0x000000000800536c                stm32f4__timers__Ttimx_ccerBIP
                0x0000000008005380                stm32f4__timers__Tcapture_compare_registersBIP
                0x0000000008005394                stm32f4__timers__timx_bdtrIP
                0x00000000080053a8                stm32f4__timers__timx_dcrIP
                0x00000000080053bc                stm32f4__timers__timer_11_remapping_optionsRP
                0x00000000080053f0                stm32f4__timers__timx_orIP
                0x0000000008005404                stm32f4__timers__timerIP
                0x0000000008005428                stm32f4__timers__timer_interrupt_listIP
                0x000000000800543c                stm32f4__timers__basic_timer
                0x000000000800547c                stm32f4__timers__advanced_timer
                0x00000000080054bc                stm32f4__timers__has_32bit_counter
                0x00000000080054f8                stm32f4__timers__trigger_output_selectable
                0x00000000080055b8                stm32f4__timers__has_at_least_2_cc_channels
                0x0000000008005678                stm32f4__timers__hall_sensor_supported
                0x000000000800570c                stm32f4__timers__clock_management_supported
                0x00000000080057cc                stm32f4__timers__has_at_least_3_cc_channels
                0x0000000008005860                stm32f4__timers__cc_channel_exists
                0x00000000080058d0                stm32f4__timers__input_xor_supported
                0x0000000008005964                stm32f4__timers__dma_supported
                0x0000000008005a24                stm32f4__timers__slave_mode_supported
                0x0000000008005ae4                stm32f4__timers__external_trigger_supported
                0x0000000008005b78                stm32f4__timers__remapping_capability_supported
                0x0000000008005bc8                stm32f4__timers__specific_channel_output_supported
                0x0000000008005d50                stm32f4__timers__complementary_outputs_supported
                0x0000000008005db0                stm32f4__timers__configure
                0x0000000008005dd8                stm32f4__timers__configure__2
                0x0000000008005e38                stm32f4__timers__set_counter_mode
                0x0000000008005e6c                stm32f4__timers__set_clock_division
                0x0000000008005ea0                stm32f4__timers__current_clock_division
                0x0000000008005ec4                stm32f4__timers__configure__3
                0x0000000008005f24                stm32f4__timers__enable
                0x0000000008005f4c                stm32f4__timers__enabled
                0x0000000008005f70                stm32f4__timers__no_outputs_enabled
                0x000000000800600c                stm32f4__timers__disable
                0x000000000800603c                stm32f4__timers__enable_main_output
                0x0000000008006064                stm32f4__timers__disable_main_output
                0x0000000008006094                stm32f4__timers__main_output_enabled
                0x00000000080060b8                stm32f4__timers__set_counter
                0x00000000080060d4                stm32f4__timers__set_counter__2
                0x00000000080060f0                stm32f4__timers__current_counter
                0x000000000800610c                stm32f4__timers__set_autoreload
                0x0000000008006128                stm32f4__timers__current_autoreload
                0x0000000008006144                stm32f4__timers__enable_interrupt
                0x0000000008006168                stm32f4__timers__enable_interrupt__2
                0x00000000080061ac                stm32f4__timers__disable_interrupt
                0x00000000080061d0                stm32f4__timers__clear_pending_interrupt
                0x00000000080061f0                stm32f4__timers__interrupt_enabled
                0x0000000008006220                stm32f4__timers__status
                0x0000000008006250                stm32f4__timers__clear_status
                0x0000000008006270                stm32f4__timers__enable_dma_source
                0x0000000008006294                stm32f4__timers__disable_dma_source
                0x00000000080062b8                stm32f4__timers__dma_source_enabled
                0x00000000080062e8                stm32f4__timers__configure_prescaler
                0x0000000008006310                stm32f4__timers__configure_dma
                0x0000000008006358                stm32f4__timers__enable_capture_compare_dma
                0x0000000008006380                stm32f4__timers__disable_capture_compare_dma
                0x00000000080063a8                stm32f4__timers__current_prescaler
                0x00000000080063c4                stm32f4__timers__set_updatedisable
                0x00000000080063f8                stm32f4__timers__set_updaterequest
                0x0000000008006434                stm32f4__timers__select_one_pulse_mode
                0x0000000008006468                stm32f4__timers__set_autoreload_preload
                0x000000000800649c                stm32f4__timers__current_counter_mode
                0x00000000080064cc                stm32f4__timers__generate_event
                0x00000000080064f8                stm32f4__timers__select_output_trigger
                0x000000000800652c                stm32f4__timers__select_slave_mode
                0x0000000008006560                stm32f4__timers__enable_master_slave_mode
                0x0000000008006588                stm32f4__timers__disable_master_slave_mode
                0x00000000080065b0                stm32f4__timers__configure_external_trigger
                0x0000000008006610                stm32f4__timers__configure_as_external_clock
                0x0000000008006634                stm32f4__timers__configure_as_external_clock__2
                0x0000000008006698                stm32f4__timers__configure_external_clock_mode1
                0x00000000080066d4                stm32f4__timers__configure_external_clock_mode2
                0x0000000008006714                stm32f4__timers__select_input_trigger
                0x0000000008006748                stm32f4__timers__configure_channel_output
                0x0000000008006900                stm32f4__timers__configure_channel_output__2
                0x0000000008006be0                stm32f4__timers__set_single_output
                0x0000000008006cf4                stm32f4__timers__set_output_compare_mode
                0x0000000008006f54                stm32f4__timers__current_capture_compare_mode
                0x0000000008006fe0                stm32f4__timers__set_output_forced_action
                0x0000000008007284                stm32f4__timers__set_output_preload_enable
                0x0000000008007364                stm32f4__timers__set_output_fast_enable
                0x0000000008007444                stm32f4__timers__set_clear_control
                0x0000000008007524                stm32f4__timers__enable_channel
                0x00000000080075dc                stm32f4__timers__set_output_polarity
                0x0000000008007678                stm32f4__timers__set_output_complementary_polarity
                0x0000000008007714                stm32f4__timers__disable_channel
                0x00000000080077a4                stm32f4__timers__channel_enabled
                0x00000000080077ec                stm32f4__timers__enable_complementary_channel
                0x000000000800787c                stm32f4__timers__disable_complementary_channel
                0x000000000800790c                stm32f4__timers__complementary_channel_enabled
                0x0000000008007954                stm32f4__timers__set_compare_value
                0x000000000800798c                stm32f4__timers__set_compare_value__2
                0x00000000080079c4                stm32f4__timers__current_capture_value
                0x00000000080079ec                stm32f4__timers__current_capture_value__2
                0x0000000008007a24                stm32f4__timers__write_channel_input_description
                0x0000000008007b44                stm32f4__timers__set_input_prescaler
                0x0000000008007c24                stm32f4__timers__current_input_prescaler
                0x0000000008007cd8                stm32f4__timers__configure_channel_input
                0x00000000080080e4                stm32f4__timers__configure_channel_input_pwm
                0x0000000008008198                stm32f4__timers__enable_cc_preload_control
                0x00000000080081c0                stm32f4__timers__disable_cc_preload_control
                0x00000000080081e8                stm32f4__timers__select_commutation
                0x0000000008008210                stm32f4__timers__deselect_commutation
                0x0000000008008238                stm32f4__timers__configure_bdtr
                0x00000000080082e8                stm32f4__timers__configure_timer_2_remapping
                0x000000000800831c                stm32f4__timers__configure_timer_5_remapping
                0x0000000008008350                stm32f4__timers__configure_timer_11_remapping
                0x0000000008008384                stm32f4__timers__configure_encoder_interface
                0x0000000008008558                stm32f4__timers__enable_hall_sensor
                0x0000000008008580                stm32f4__timers__disable_hall_sensor
 .text          0x00000000080085a8      0x9f4 C:\Users\Milie\Desktop\EIDD\3A\TempsReelADA\base\game_support\stm32f4\obj\stm32f4-usarts.o
                0x00000000080085a8                stm32f4__usarts__status_registerIP
                0x00000000080085bc                stm32f4__usarts__usartIP
                0x00000000080085d0                stm32f4__usarts__stop_bitsRP
                0x0000000008008608                stm32f4__usarts__word_lengthsRP
                0x0000000008008640                stm32f4__usarts__paritiesRP
                0x0000000008008680                stm32f4__usarts__baud_ratesPredicate
                0x000000000800870c                stm32f4__usarts__uart_modesRP
                0x0000000008008748                stm32f4__usarts__flow_controlRP
                0x000000000800879c                stm32f4__usarts__apb_clock
                0x00000000080087ec                stm32f4__usarts__enable
                0x0000000008008810                stm32f4__usarts__disable
                0x0000000008008834                stm32f4__usarts__enabled
                0x0000000008008864                stm32f4__usarts__set_stop_bits
                0x000000000800889c                stm32f4__usarts__set_word_length
                0x00000000080088dc                stm32f4__usarts__set_parity
                0x0000000008008914                stm32f4__usarts__set_baud_rate
                0x00000000080089bc                stm32f4__usarts__set_mode
                0x00000000080089f0                stm32f4__usarts__set_flow_control
                0x0000000008008a28                stm32f4__usarts__transmit
                0x0000000008008a4c                stm32f4__usarts(long double,...)(char,...)(int, void,...)
                0x0000000008008a6c                stm32f4__usarts__current_input
                0x0000000008008a88                stm32f4__usarts__tx_ready
                0x0000000008008ab0                stm32f4__usarts__rx_ready
                0x0000000008008ad8                stm32f4__usarts__status
                0x0000000008008ba0                stm32f4__usarts__clear_status
                0x0000000008008c70                stm32f4__usarts__enable_interrupts
                0x0000000008008cf8                stm32f4__usarts__disable_interrupts
                0x0000000008008d8c                stm32f4__usarts__interrupt_enabled
                0x0000000008008e40                stm32f4__usarts__enable_dma_transmit_requests
                0x0000000008008e64                stm32f4__usarts__enable_dma_receive_requests
                0x0000000008008e88                stm32f4__usarts__disable_dma_transmit_requests
                0x0000000008008eac                stm32f4__usarts__disable_dma_receive_requests
                0x0000000008008ed0                stm32f4__usarts__dma_transmit_requests_enabled
                0x0000000008008efc                stm32f4__usarts__dma_receive_requests_enabled
                0x0000000008008f28                stm32f4__usarts__resume_dma_transmission
                0x0000000008008f54                stm32f4__usarts__resume_dma_reception
                0x0000000008008f80                stm32f4__usarts__data_register_address
 .text          0x0000000008008f9c      0x6cc C:\Users\Milie\Desktop\EIDD\3A\TempsReelADA\base\game_support\stm32f4\obj\stm32f429_discovery.o
                0x0000000008008f9c                stm32f429_discovery__on
                0x0000000008008fbc                stm32f429_discovery__off
                0x0000000008008fdc                stm32f429_discovery__toggle
                0x0000000008008ffc                stm32f429_discovery__all_leds_off
                0x000000000800901c                stm32f429_discovery__all_leds_on
                0x000000000800903c                stm32f429_discovery__initialize_leds
                0x0000000008009084                stm32f429_discovery__enable_clock
                0x0000000008009164                stm32f429_discovery__enable_clock__2
                0x00000000080091c8                stm32f429_discovery__enable_clock__3
                0x0000000008009208                stm32f429_discovery__enable_clock__4
                0x0000000008009258                stm32f429_discovery__reset
                0x00000000080092b4                stm32f429_discovery__enable_clock__5
                0x0000000008009354                stm32f429_discovery__reset__2
                0x00000000080093dc                stm32f429_discovery__enable_clock__6
                0x00000000080094f0                stm32f429_discovery__reset__3
                0x000000000800963c                stm32f429_discovery___elabb
                0x000000000800965c                stm32f429_discovery___elabs
 .text          0x0000000008009668      0x328 C:\Users\Milie\Desktop\EIDD\3A\TempsReelADA\base\game_support\stm32f4\obj\stm32f4-sdram.o
                0x0000000008009910                stm32f4__sdram__initialize
 .text          0x0000000008009990      0xeb0 C:\Users\Milie\Desktop\EIDD\3A\TempsReelADA\base\game_support\stm32f4\obj\stm32f4-lcd.o
                0x0000000008009990                stm32f4__lcd__pixel_colorIP
                0x00000000080099a8                stm32f4__lcd__ssc_registersIP
                0x00000000080099bc                stm32f4__lcd__bpc_registersIP
                0x00000000080099d0                stm32f4__lcd__awc_registersIP
                0x00000000080099e4                stm32f4__lcd__twc_registersIP
                0x00000000080099f8                stm32f4__lcd__gc_registersIP
                0x0000000008009a0c                stm32f4__lcd__src_registersIP
                0x0000000008009a20                stm32f4__lcd__bcc_registersIP
                0x0000000008009a34                stm32f4__lcd__ie_registersIP
                0x0000000008009a48                stm32f4__lcd__is_registersIP
                0x0000000008009a5c                stm32f4__lcd__ic_registersIP
                0x0000000008009a70                stm32f4__lcd__lipc_registersIP
                0x0000000008009a84                stm32f4__lcd__cps_registersIP
                0x0000000008009a98                stm32f4__lcd__cds_registersIP
                0x0000000008009aac                stm32f4__lcd__ltdcrIP
                0x0000000008009ac0                stm32f4__lcd__lc_registersIP
                0x0000000008009ad4                stm32f4__lcd__lwhpc_registersIP
                0x0000000008009ae8                stm32f4__lcd__lwvpc_registersIP
                0x0000000008009afc                stm32f4__lcd__lckc_registersIP
                0x0000000008009b10                stm32f4__lcd__lcac_registersIP
                0x0000000008009b24                stm32f4__lcd__ldcc_registersIP
                0x0000000008009b38                stm32f4__lcd__lbfc_registersIP
                0x0000000008009b4c                stm32f4__lcd__lcfbl_registersIP
                0x0000000008009b60                stm32f4__lcd__lcfbln_registersIP
                0x0000000008009b74                stm32f4__lcd__lclutw_registersIP
                0x0000000008009b88                stm32f4__lcd__layerIP
                0x0000000008009b9c                stm32f4__lcd__Tframe_bufferBIP
                0x0000000008009bb0                stm32f4__lcd__Tframe_buffer_arrayBIP
                0x000000000800a2f0                stm32f4__lcd__initialize_layer
                0x000000000800a438                stm32f4__lcd__initialize
                0x000000000800a570                stm32f4__lcd__current_frame_buffer
                0x000000000800a5e4                stm32f4__lcd__set_layer_state
                0x000000000800a63c                stm32f4__lcd__set_background
                0x000000000800a674                stm32f4__lcd__set_pixel
                0x000000000800a708                stm32f4__lcd__pixel_value
                0x000000000800a79c                stm32f4__lcd__flip_buffers
                0x000000000800a7d8                stm32f4__lcd__flip_copy_buffers
                0x000000000800a834                stm32f4__lcd___elabs
 .text          0x000000000800a840      0x710 C:\Users\Milie\Desktop\EIDD\3A\TempsReelADA\base\game_support\stm32f4\obj\stm32f4-touch_panel.o
                0x000000000800a840                stm32f4__touch_panel__tp_stateIP
                0x000000000800aca8                stm32f4__touch_panel__initialize
                0x000000000800aed8                stm32f4__touch_panel__current_state
 .text          0x000000000800af50      0x454 C:\Users\Milie\Desktop\EIDD\3A\TempsReelADA\base\game_support\stm32f4\obj\screen_interface.o
                0x000000000800af50                screen_interface__touch_stateIP
                0x000000000800af64                screen_interface__pointIP
                0x000000000800af78                screen_interface__Oadd
                0x000000000800afd0                screen_interface__Osubtract
                0x000000000800b028                screen_interface__initialize
                0x000000000800b040                screen_interface__get_touch_state
                0x000000000800b078                screen_interface__set_pixel
                0x000000000800b0a0                screen_interface__fill_screen
                0x000000000800b0d8                screen_interface__fast_horiz_line
                0x000000000800b1c0                screen_interface__rgb_to_color
 .text          0x000000000800b3a4      0xec4 C:\Users\Milie\Desktop\EIDD\3A\TempsReelADA\base\game_support\stm32f4\obj\fonts.o
                0x000000000800bd6c                fonts__draw_char
                0x000000000800bde4                fonts__draw_char__2
                0x000000000800be4c                fonts__draw_string
                0x000000000800bf60                fonts__draw_string__2
                0x000000000800c06c                fonts__char_size
                0x000000000800c0d4                fonts__string_size
 .text          0x000000000800c268     0x2638 C:\Users\Milie\Desktop\EIDD\3A\TempsReelADA\base\game_support\obj\display-basic.o
                0x000000000800c268                display__basic__point_2dIP
                0x000000000800c2ac                display__basic__point_3dIP
                0x000000000800c300                display__basic__screen_pointIP
                0x000000000800c314                display__basic__cursor_tIP
                0x000000000800c3ac                display__basic__t_internal_canvasIP
                0x000000000800c454                display__basic__set_pixel
                0x000000000800c484                display__basic__cart_pointIP
                0x000000000800c4c8                display__basic__to_point3d
                0x000000000800c56c                display__basic__to_screen_point
                0x000000000800c5c0                display__basic__set_center__2
                0x000000000800c5e8                display__basic__set_center
                0x000000000800c648                display__basic__get_center
                0x000000000800c674                display__basic__get_canvas_size
                0x000000000800c6a0                display__basic__managed_stringIP
                0x000000000800c6b4                display__basic__Tstring_arrayBIP
                0x000000000800c6c8                display__basic__managed_stringsIP
                0x000000000800cf0c                display__basic__draw_circle
                0x000000000800cf84                display__basic__draw_circle__2
                0x000000000800d1d4                display__basic__draw_line
                0x000000000800d27c                display__basic__draw_line__2
                0x000000000800d644                display__basic__draw_rect__2
                0x000000000800d66c                display__basic__draw_rect
                0x000000000800d6f4                display__basic__draw_fill_rect__2
                0x000000000800d71c                display__basic__draw_fill_rect
                0x000000000800da74                display__basic__draw_sphere__2
                0x000000000800da9c                display__basic__draw_sphere
                0x000000000800dcdc                display__basic__draw_text
                0x000000000800dd64                display__basic__draw_text__2
                0x000000000800ddb0                display__basic__get_text_size
                0x000000000800dde0                display__basic__is_killed
                0x000000000800ddf4                display__basic__get_cursor_status
                0x000000000800dfa0                display__basic__swap_buffers
                0x000000000800dfcc                display__basic__swap_copy_buffers
                0x000000000800dfe0                display__basic(float, int, long, long)
                0x000000000800e010                display__basic__get_zoom_factor
                0x000000000800e034                display__basic__set_zoom_factor
                0x000000000800e058                display__basic__create_window
                0x000000000800e38c                display__basic__get_canvas
                0x000000000800e514                display__basic__enable_3d_light
                0x000000000800e52c                display__basic__disable_3d_light
                0x000000000800e544                display__basic__set_3d_light
                0x000000000800e880                display__basic___elabb
 .text          0x000000000800e8a0        0x0 C:\gnat\2018-arm-elf\arm-eabi\lib\gnat\ravenscar-sfp-stm32f429disco\adalib\libgnarl.a(a-reatim.o)
 .text.ada__real_time__mul_div
                0x000000000800e8a0      0x118 C:\gnat\2018-arm-elf\arm-eabi\lib\gnat\ravenscar-sfp-stm32f429disco\adalib\libgnarl.a(a-reatim.o)
 .text.ada__real_time__Oadd__2
                0x000000000800e9b8       0x14 C:\gnat\2018-arm-elf\arm-eabi\lib\gnat\ravenscar-sfp-stm32f429disco\adalib\libgnarl.a(a-reatim.o)
                0x000000000800e9b8                ada__real_time__Oadd__2
 .text.ada__real_time__Omultiply
                0x000000000800e9cc       0xac C:\gnat\2018-arm-elf\arm-eabi\lib\gnat\ravenscar-sfp-stm32f429disco\adalib\libgnarl.a(a-reatim.o)
                0x000000000800e9cc                ada__real_time__Omultiply
 .text.ada__real_time__Omultiply__2
                0x000000000800ea78       0x10 C:\gnat\2018-arm-elf\arm-eabi\lib\gnat\ravenscar-sfp-stm32f429disco\adalib\libgnarl.a(a-reatim.o)
                0x000000000800ea78                ada__real_time__Omultiply__2
 .text.ada__real_time__Oadd
                0x000000000800ea88       0x68 C:\gnat\2018-arm-elf\arm-eabi\lib\gnat\ravenscar-sfp-stm32f429disco\adalib\libgnarl.a(a-reatim.o)
                0x000000000800ea88                ada__real_time__Oadd
 .text.ada__real_time__Oadd__3
                0x000000000800eaf0       0x30 C:\gnat\2018-arm-elf\arm-eabi\lib\gnat\ravenscar-sfp-stm32f429disco\adalib\libgnarl.a(a-reatim.o)
                0x000000000800eaf0                ada__real_time__Oadd__3
 .text.ada__real_time__Osubtract
                0x000000000800eb20       0x6c C:\gnat\2018-arm-elf\arm-eabi\lib\gnat\ravenscar-sfp-stm32f429disco\adalib\libgnarl.a(a-reatim.o)
                0x000000000800eb20                ada__real_time__Osubtract
 .text.ada__real_time__Osubtract__2
                0x000000000800eb8c       0x48 C:\gnat\2018-arm-elf\arm-eabi\lib\gnat\ravenscar-sfp-stm32f429disco\adalib\libgnarl.a(a-reatim.o)
                0x000000000800eb8c                ada__real_time__Osubtract__2
 .text.ada__real_time__Osubtract__3
                0x000000000800ebd4       0x30 C:\gnat\2018-arm-elf\arm-eabi\lib\gnat\ravenscar-sfp-stm32f429disco\adalib\libgnarl.a(a-reatim.o)
                0x000000000800ebd4                ada__real_time__Osubtract__3
 .text.ada__real_time__Osubtract__4
                0x000000000800ec04       0x24 C:\gnat\2018-arm-elf\arm-eabi\lib\gnat\ravenscar-sfp-stm32f429disco\adalib\libgnarl.a(a-reatim.o)
                0x000000000800ec04                ada__real_time__Osubtract__4
 .text.ada__real_time__Odivide
                0x000000000800ec28       0x44 C:\gnat\2018-arm-elf\arm-eabi\lib\gnat\ravenscar-sfp-stm32f429disco\adalib\libgnarl.a(a-reatim.o)
                0x000000000800ec28                ada__real_time(double &&, int, void, int, double,...)
 .text.ada__real_time__Odivide__2
                0x000000000800ec6c       0x34 C:\gnat\2018-arm-elf\arm-eabi\lib\gnat\ravenscar-sfp-stm32f429disco\adalib\libgnarl.a(a-reatim.o)
                0x000000000800ec6c                ada__real_time__Odivide__2
 .text.ada__real_time__clock
                0x000000000800eca0       0x60 C:\gnat\2018-arm-elf\arm-eabi\lib\gnat\ravenscar-sfp-stm32f429disco\adalib\libgnarl.a(a-reatim.o)
                0x000000000800eca0                ada__real_time__clock
 .text.ada__real_time__microseconds
                0x000000000800ed00       0x44 C:\gnat\2018-arm-elf\arm-eabi\lib\gnat\ravenscar-sfp-stm32f429disco\adalib\libgnarl.a(a-reatim.o)
                0x000000000800ed00                ada__real_time__microseconds
 .text.ada__real_time__milliseconds
                0x000000000800ed44       0x44 C:\gnat\2018-arm-elf\arm-eabi\lib\gnat\ravenscar-sfp-stm32f429disco\adalib\libgnarl.a(a-reatim.o)
                0x000000000800ed44                ada__real_time__milliseconds
 .text.ada__real_time__minutes
                0x000000000800ed88       0x50 C:\gnat\2018-arm-elf\arm-eabi\lib\gnat\ravenscar-sfp-stm32f429disco\adalib\libgnarl.a(a-reatim.o)
                0x000000000800ed88                ada__real_time__minutes
 .text.ada__real_time__nanoseconds
                0x000000000800edd8       0x6c C:\gnat\2018-arm-elf\arm-eabi\lib\gnat\ravenscar-sfp-stm32f429disco\adalib\libgnarl.a(a-reatim.o)
                0x000000000800edd8                ada__real_time__nanoseconds
 .text.ada__real_time__rounded_div
                0x000000000800ee44       0x48 C:\gnat\2018-arm-elf\arm-eabi\lib\gnat\ravenscar-sfp-stm32f429disco\adalib\libgnarl.a(a-reatim.o)
                0x000000000800ee44                ada__real_time__rounded_div
 .text.ada__real_time__seconds
                0x000000000800ee8c        0xc C:\gnat\2018-arm-elf\arm-eabi\lib\gnat\ravenscar-sfp-stm32f429disco\adalib\libgnarl.a(a-reatim.o)
                0x000000000800ee8c                ada__real_time__seconds
 .text.ada__real_time__split
                0x000000000800ee98       0x80 C:\gnat\2018-arm-elf\arm-eabi\lib\gnat\ravenscar-sfp-stm32f429disco\adalib\libgnarl.a(a-reatim.o)
                0x000000000800ee98                ada__real_time__split
 .text.ada__real_time__time_of
                0x000000000800ef18      0x110 C:\gnat\2018-arm-elf\arm-eabi\lib\gnat\ravenscar-sfp-stm32f429disco\adalib\libgnarl.a(a-reatim.o)
                0x000000000800ef18                ada__real_time__time_of
 .text.ada__real_time__to_duration
                0x000000000800f028       0x10 C:\gnat\2018-arm-elf\arm-eabi\lib\gnat\ravenscar-sfp-stm32f429disco\adalib\libgnarl.a(a-reatim.o)
                0x000000000800f028                ada__real_time__to_duration
 .text.ada__real_time__to_time_span
                0x000000000800f038       0x10 C:\gnat\2018-arm-elf\arm-eabi\lib\gnat\ravenscar-sfp-stm32f429disco\adalib\libgnarl.a(a-reatim.o)
                0x000000000800f038                ada__real_time__to_time_span
 .text.ada__real_time___elabb
                0x000000000800f048        0x4 C:\gnat\2018-arm-elf\arm-eabi\lib\gnat\ravenscar-sfp-stm32f429disco\adalib\libgnarl.a(a-reatim.o)
                0x000000000800f048                ada__real_time___elabb
 .text          0x000000000800f04c        0x0 C:\gnat\2018-arm-elf\arm-eabi\lib\gnat\ravenscar-sfp-stm32f429disco\adalib\libgnarl.a(a-retide.o)
 .text.ada__real_time__delays__delay_until
                0x000000000800f04c       0x30 C:\gnat\2018-arm-elf\arm-eabi\lib\gnat\ravenscar-sfp-stm32f429disco\adalib\libgnarl.a(a-retide.o)
                0x000000000800f04c                ada__real_time__delays__delay_until
 .text.ada__real_time__delays__to_duration
                0x000000000800f07c        0x8 C:\gnat\2018-arm-elf\arm-eabi\lib\gnat\ravenscar-sfp-stm32f429disco\adalib\libgnarl.a(a-retide.o)
                0x000000000800f07c                ada__real_time__delays__to_duration
 .text          0x000000000800f084        0x0 C:\gnat\2018-arm-elf\arm-eabi\lib\gnat\ravenscar-sfp-stm32f429disco\adalib\libgnarl.a(s-bbbosu.o)
 .text.system__bb__board_support__timer_interrupt_handler
                0x000000000800f084        0x8 C:\gnat\2018-arm-elf\arm-eabi\lib\gnat\ravenscar-sfp-stm32f429disco\adalib\libgnarl.a(s-bbbosu.o)
                0x000000000800f084                system__bb__board_support__timer_interrupt_handler
 .text.system__bb__board_support__interrupt_handler
                0x000000000800f08c        0xc C:\gnat\2018-arm-elf\arm-eabi\lib\gnat\ravenscar-sfp-stm32f429disco\adalib\libgnarl.a(s-bbbosu.o)
                0x000000000800f08c                system__bb__board_support__interrupt_handler
 .text.system__bb__board_support__enable_interrupt_request.part.0
                0x000000000800f098       0x1c C:\gnat\2018-arm-elf\arm-eabi\lib\gnat\ravenscar-sfp-stm32f429disco\adalib\libgnarl.a(s-bbbosu.o)
 .text.system__bb__board_support__time__max_timer_interval
                0x000000000800f0b4        0x8 C:\gnat\2018-arm-elf\arm-eabi\lib\gnat\ravenscar-sfp-stm32f429disco\adalib\libgnarl.a(s-bbbosu.o)
                0x000000000800f0b4                system__bb__board_support__time__max_timer_interval
 .text.system__bb__board_support__time__read_clock
                0x000000000800f0bc       0x44 C:\gnat\2018-arm-elf\arm-eabi\lib\gnat\ravenscar-sfp-stm32f429disco\adalib\libgnarl.a(s-bbbosu.o)
                0x000000000800f0bc                system__bb__board_support__time__read_clock
 .text.system__bb__board_support__time__clear_alarm_interrupt
                0x000000000800f100       0x10 C:\gnat\2018-arm-elf\arm-eabi\lib\gnat\ravenscar-sfp-stm32f429disco\adalib\libgnarl.a(s-bbbosu.o)
                0x000000000800f100                system__bb__board_support__time__clear_alarm_interrupt
 .text.system__bb__board_support__time__set_alarm
                0x000000000800f110       0x64 C:\gnat\2018-arm-elf\arm-eabi\lib\gnat\ravenscar-sfp-stm32f429disco\adalib\libgnarl.a(s-bbbosu.o)
                0x000000000800f110                system__bb__board_support__time__set_alarm
 .text.system__bb__board_support__time__install_alarm_handler
                0x000000000800f174        0xc C:\gnat\2018-arm-elf\arm-eabi\lib\gnat\ravenscar-sfp-stm32f429disco\adalib\libgnarl.a(s-bbbosu.o)
                0x000000000800f174                system__bb__board_support__time__install_alarm_handler
 .text.system__bb__board_support__multiprocessors__number_of_cpus
                0x000000000800f180        0x4 C:\gnat\2018-arm-elf\arm-eabi\lib\gnat\ravenscar-sfp-stm32f429disco\adalib\libgnarl.a(s-bbbosu.o)
                0x000000000800f180                system__bb__board_support__multiprocessors__number_of_cpus
 .text.system__bb__board_support__multiprocessors__current_cpu
                0x000000000800f184        0x4 C:\gnat\2018-arm-elf\arm-eabi\lib\gnat\ravenscar-sfp-stm32f429disco\adalib\libgnarl.a(s-bbbosu.o)
                0x000000000800f184                system__bb__board_support__multiprocessors__current_cpu
 .text.system__bb__board_support__multiprocessors__poke_cpu
                0x000000000800f188        0x4 C:\gnat\2018-arm-elf\arm-eabi\lib\gnat\ravenscar-sfp-stm32f429disco\adalib\libgnarl.a(s-bbbosu.o)
                0x000000000800f188                system__bb__board_support__multiprocessors__poke_cpu
 .text.system__bb__board_support__multiprocessors__start_all_cpus
                0x000000000800f18c        0x4 C:\gnat\2018-arm-elf\arm-eabi\lib\gnat\ravenscar-sfp-stm32f429disco\adalib\libgnarl.a(s-bbbosu.o)
                0x000000000800f18c                system__bb__board_support__multiprocessors__start_all_cpus
 .text.system__bb__board_support__interrupts__install_interrupt_handler
                0x000000000800f190       0x54 C:\gnat\2018-arm-elf\arm-eabi\lib\gnat\ravenscar-sfp-stm32f429disco\adalib\libgnarl.a(s-bbbosu.o)
                0x000000000800f190                system__bb__board_support__interrupts__install_interrupt_handler
 .text.system__bb__board_support__interrupts__priority_of_interrupt
                0x000000000800f1e4       0x20 C:\gnat\2018-arm-elf\arm-eabi\lib\gnat\ravenscar-sfp-stm32f429disco\adalib\libgnarl.a(s-bbbosu.o)
                0x000000000800f1e4                system__bb__board_support__interrupts__priority_of_interrupt
 .text.system__bb__board_support__interrupts__power_down
                0x000000000800f204        0x4 C:\gnat\2018-arm-elf\arm-eabi\lib\gnat\ravenscar-sfp-stm32f429disco\adalib\libgnarl.a(s-bbbosu.o)
                0x000000000800f204                system__bb__board_support__interrupts__power_down
 .text.system__bb__board_support__interrupts__set_current_priority
                0x000000000800f208       0x18 C:\gnat\2018-arm-elf\arm-eabi\lib\gnat\ravenscar-sfp-stm32f429disco\adalib\libgnarl.a(s-bbbosu.o)
                0x000000000800f208                system__bb__board_support__interrupts__set_current_priority
 .text.system__bb__board_support__sys_tick_registersIP
                0x000000000800f220        0x4 C:\gnat\2018-arm-elf\arm-eabi\lib\gnat\ravenscar-sfp-stm32f429disco\adalib\libgnarl.a(s-bbbosu.o)
                0x000000000800f220                system__bb__board_support__sys_tick_registersIP
 .text.system__bb__board_support__TipBIP
                0x000000000800f224        0x4 C:\gnat\2018-arm-elf\arm-eabi\lib\gnat\ravenscar-sfp-stm32f429disco\adalib\libgnarl.a(s-bbbosu.o)
                0x000000000800f224                system__bb__board_support__TipBIP
 .text.system__bb__board_support__initialize_board
                0x000000000800f228       0x9c C:\gnat\2018-arm-elf\arm-eabi\lib\gnat\ravenscar-sfp-stm32f429disco\adalib\libgnarl.a(s-bbbosu.o)
                0x000000000800f228                system__bb__board_support__initialize_board
 .text.system__bb__board_support__enable_interrupt_request
                0x000000000800f2c4       0x30 C:\gnat\2018-arm-elf\arm-eabi\lib\gnat\ravenscar-sfp-stm32f429disco\adalib\libgnarl.a(s-bbbosu.o)
                0x000000000800f2c4                system__bb__board_support__enable_interrupt_request
 .text.system__bb__board_support__to_pri
                0x000000000800f2f4       0x14 C:\gnat\2018-arm-elf\arm-eabi\lib\gnat\ravenscar-sfp-stm32f429disco\adalib\libgnarl.a(s-bbbosu.o)
                0x000000000800f2f4                system__bb__board_support__to_pri
 .text.system__bb__board_support__to_priority
                0x000000000800f308       0x10 C:\gnat\2018-arm-elf\arm-eabi\lib\gnat\ravenscar-sfp-stm32f429disco\adalib\libgnarl.a(s-bbbosu.o)
                0x000000000800f308                system__bb__board_support__to_priority
 .text          0x000000000800f318        0x0 C:\gnat\2018-arm-elf\arm-eabi\lib\gnat\ravenscar-sfp-stm32f429disco\adalib\libgnarl.a(s-bbcppr.o)
 .text.system__bb__cpu_primitives__gnat_error_handler
                0x000000000800f318      0x1b8 C:\gnat\2018-arm-elf\arm-eabi\lib\gnat\ravenscar-sfp-stm32f429disco\adalib\libgnarl.a(s-bbcppr.o)
                0x000000000800f318                system__bb__cpu_primitives__gnat_error_handler
 .text.system__bb__cpu_primitives__Tcontext_bufferBIP
                0x000000000800f4d0        0x4 C:\gnat\2018-arm-elf\arm-eabi\lib\gnat\ravenscar-sfp-stm32f429disco\adalib\libgnarl.a(s-bbcppr.o)
                0x000000000800f4d0                system__bb__cpu_primitives__Tcontext_bufferBIP
 .text.system__bb__cpu_primitives__hardware_contextIP
                0x000000000800f4d4        0x4 C:\gnat\2018-arm-elf\arm-eabi\lib\gnat\ravenscar-sfp-stm32f429disco\adalib\libgnarl.a(s-bbcppr.o)
                0x000000000800f4d4                system__bb__cpu_primitives__hardware_contextIP
 .text.primask  0x000000000800f4d8        0x8 C:\gnat\2018-arm-elf\arm-eabi\lib\gnat\ravenscar-sfp-stm32f429disco\adalib\libgnarl.a(s-bbcppr.o)
                0x000000000800f4d8                primask
 .text.system__bb__cpu_primitives__initialize_cpu
                0x000000000800f4e0       0x84 C:\gnat\2018-arm-elf\arm-eabi\lib\gnat\ravenscar-sfp-stm32f429disco\adalib\libgnarl.a(s-bbcppr.o)
                0x000000000800f4e0                system__bb__cpu_primitives__initialize_cpu
 .text.system__bb__cpu_primitives__context_switch
                0x000000000800f564        0x8 C:\gnat\2018-arm-elf\arm-eabi\lib\gnat\ravenscar-sfp-stm32f429disco\adalib\libgnarl.a(s-bbcppr.o)
                0x000000000800f564                system__bb__cpu_primitives__context_switch
 .text.system__bb__cpu_primitives__get_context
                0x000000000800f56c        0x8 C:\gnat\2018-arm-elf\arm-eabi\lib\gnat\ravenscar-sfp-stm32f429disco\adalib\libgnarl.a(s-bbcppr.o)
                0x000000000800f56c                system__bb__cpu_primitives__get_context
 .text.__gnat_irq_trap
                0x000000000800f574       0x4c C:\gnat\2018-arm-elf\arm-eabi\lib\gnat\ravenscar-sfp-stm32f429disco\adalib\libgnarl.a(s-bbcppr.o)
                0x000000000800f574                __gnat_irq_trap
 .text.__gnat_sv_call_trap
                0x000000000800f5c0        0x8 C:\gnat\2018-arm-elf\arm-eabi\lib\gnat\ravenscar-sfp-stm32f429disco\adalib\libgnarl.a(s-bbcppr.o)
                0x000000000800f5c0                __gnat_sv_call_trap
 .text.system__bb__cpu_primitives__set_context
                0x000000000800f5c8        0x8 C:\gnat\2018-arm-elf\arm-eabi\lib\gnat\ravenscar-sfp-stm32f429disco\adalib\libgnarl.a(s-bbcppr.o)
                0x000000000800f5c8                system__bb__cpu_primitives__set_context
 .text.__gnat_sys_tick_trap
                0x000000000800f5d0       0x68 C:\gnat\2018-arm-elf\arm-eabi\lib\gnat\ravenscar-sfp-stm32f429disco\adalib\libgnarl.a(s-bbcppr.o)
                0x000000000800f5d0                __gnat_sys_tick_trap
 .text.system__bb__cpu_primitives__initialize_context
                0x000000000800f638       0x50 C:\gnat\2018-arm-elf\arm-eabi\lib\gnat\ravenscar-sfp-stm32f429disco\adalib\libgnarl.a(s-bbcppr.o)
                0x000000000800f638                system__bb__cpu_primitives__initialize_context
 .text.system__bb__cpu_primitives__install_error_handlers
                0x000000000800f688       0x1c C:\gnat\2018-arm-elf\arm-eabi\lib\gnat\ravenscar-sfp-stm32f429disco\adalib\libgnarl.a(s-bbcppr.o)
                0x000000000800f688                system__bb__cpu_primitives__install_error_handlers
 .text.system__bb__cpu_primitives__install_trap_handler
                0x000000000800f6a4        0xc C:\gnat\2018-arm-elf\arm-eabi\lib\gnat\ravenscar-sfp-stm32f429disco\adalib\libgnarl.a(s-bbcppr.o)
                0x000000000800f6a4                system__bb__cpu_primitives__install_trap_handler
 .text.system__bb__cpu_primitives__disable_interrupts
                0x000000000800f6b0        0x4 C:\gnat\2018-arm-elf\arm-eabi\lib\gnat\ravenscar-sfp-stm32f429disco\adalib\libgnarl.a(s-bbcppr.o)
                0x000000000800f6b0                system__bb__cpu_primitives__disable_interrupts
 .text.system__bb__cpu_primitives__enable_interrupts
                0x000000000800f6b4       0x24 C:\gnat\2018-arm-elf\arm-eabi\lib\gnat\ravenscar-sfp-stm32f429disco\adalib\libgnarl.a(s-bbcppr.o)
                0x000000000800f6b4                system__bb__cpu_primitives__enable_interrupts
 .text          0x000000000800f6d8        0x0 C:\gnat\2018-arm-elf\arm-eabi\lib\gnat\ravenscar-sfp-stm32f429disco\adalib\libgnarl.a(s-bbinte.o)
 .text.system__bb__interrupts__Tinterrupt_stacksBIP
                0x000000000800f6d8        0x4 C:\gnat\2018-arm-elf\arm-eabi\lib\gnat\ravenscar-sfp-stm32f429disco\adalib\libgnarl.a(s-bbinte.o)
                0x000000000800f6d8                system__bb__interrupts__Tinterrupt_stacksBIP
 .text.system__bb__interrupts__Tinterrupt_stack_tableBIP
                0x000000000800f6dc        0x4 C:\gnat\2018-arm-elf\arm-eabi\lib\gnat\ravenscar-sfp-stm32f429disco\adalib\libgnarl.a(s-bbinte.o)
                0x000000000800f6dc                system__bb__interrupts__Tinterrupt_stack_tableBIP
 .text.system__bb__interrupts__attach_handler
                0x000000000800f6e0       0x1c C:\gnat\2018-arm-elf\arm-eabi\lib\gnat\ravenscar-sfp-stm32f429disco\adalib\libgnarl.a(s-bbinte.o)
                0x000000000800f6e0                system__bb__interrupts__attach_handler
 .text.system__bb__interrupts__current_interrupt
                0x000000000800f6fc       0x1c C:\gnat\2018-arm-elf\arm-eabi\lib\gnat\ravenscar-sfp-stm32f429disco\adalib\libgnarl.a(s-bbinte.o)
                0x000000000800f6fc                system__bb__interrupts__current_interrupt
 .text.system__bb__interrupts__interrupt_wrapper
                0x000000000800f718       0xf4 C:\gnat\2018-arm-elf\arm-eabi\lib\gnat\ravenscar-sfp-stm32f429disco\adalib\libgnarl.a(s-bbinte.o)
                0x000000000800f718                system__bb__interrupts__interrupt_wrapper
 .text.system__bb__interrupts__within_interrupt_stack
                0x000000000800f80c       0x40 C:\gnat\2018-arm-elf\arm-eabi\lib\gnat\ravenscar-sfp-stm32f429disco\adalib\libgnarl.a(s-bbinte.o)
                0x000000000800f80c                system__bb__interrupts__within_interrupt_stack
 .text.system__bb__interrupts__initialize_interrupts
                0x000000000800f84c       0x10 C:\gnat\2018-arm-elf\arm-eabi\lib\gnat\ravenscar-sfp-stm32f429disco\adalib\libgnarl.a(s-bbinte.o)
                0x000000000800f84c                system__bb__interrupts__initialize_interrupts
 .text          0x000000000800f85c        0x0 C:\gnat\2018-arm-elf\arm-eabi\lib\gnat\ravenscar-sfp-stm32f429disco\adalib\libgnarl.a(s-bbthqu.o)
 .text.system__bb__threads__queues__change_priority
                0x000000000800f85c       0x70 C:\gnat\2018-arm-elf\arm-eabi\lib\gnat\ravenscar-sfp-stm32f429disco\adalib\libgnarl.a(s-bbthqu.o)
                0x000000000800f85c                system__bb__threads__queues__change_priority
 .text.__gnat_context_switch_needed
                0x000000000800f8cc       0x18 C:\gnat\2018-arm-elf\arm-eabi\lib\gnat\ravenscar-sfp-stm32f429disco\adalib\libgnarl.a(s-bbthqu.o)
                0x000000000800f8cc                __gnat_context_switch_needed
 .text.system__bb__threads__queues__current_priority
                0x000000000800f8e4       0x20 C:\gnat\2018-arm-elf\arm-eabi\lib\gnat\ravenscar-sfp-stm32f429disco\adalib\libgnarl.a(s-bbthqu.o)
                0x000000000800f8e4                system__bb__threads__queues__current_priority
 .text.system__bb__threads__queues__extract
                0x000000000800f904       0x28 C:\gnat\2018-arm-elf\arm-eabi\lib\gnat\ravenscar-sfp-stm32f429disco\adalib\libgnarl.a(s-bbthqu.o)
                0x000000000800f904                system__bb__threads__queues__extract
 .text.system__bb__threads__queues__extract_first_alarm
                0x000000000800f92c       0x24 C:\gnat\2018-arm-elf\arm-eabi\lib\gnat\ravenscar-sfp-stm32f429disco\adalib\libgnarl.a(s-bbthqu.o)
                0x000000000800f92c                system__bb__threads__queues__extract_first_alarm
 .text.system__bb__threads__queues__first_thread
                0x000000000800f950        0xc C:\gnat\2018-arm-elf\arm-eabi\lib\gnat\ravenscar-sfp-stm32f429disco\adalib\libgnarl.a(s-bbthqu.o)
                0x000000000800f950                system__bb__threads__queues__first_thread
 .text.system__bb__threads__queues__get_next_alarm_time
                0x000000000800f95c       0x24 C:\gnat\2018-arm-elf\arm-eabi\lib\gnat\ravenscar-sfp-stm32f429disco\adalib\libgnarl.a(s-bbthqu.o)
                0x000000000800f95c                system__bb__threads__queues__get_next_alarm_time
 .text.system__bb__threads__queues__insert
                0x000000000800f980       0x8c C:\gnat\2018-arm-elf\arm-eabi\lib\gnat\ravenscar-sfp-stm32f429disco\adalib\libgnarl.a(s-bbthqu.o)
                0x000000000800f980                system__bb__threads__queues__insert
 .text.system__bb__threads__queues__insert_alarm
                0x000000000800fa0c       0x58 C:\gnat\2018-arm-elf\arm-eabi\lib\gnat\ravenscar-sfp-stm32f429disco\adalib\libgnarl.a(s-bbthqu.o)
                0x000000000800fa0c                system__bb__threads__queues__insert_alarm
 .text.system__bb__threads__queues__running_thread
                0x000000000800fa64        0xc C:\gnat\2018-arm-elf\arm-eabi\lib\gnat\ravenscar-sfp-stm32f429disco\adalib\libgnarl.a(s-bbthqu.o)
                0x000000000800fa64                system__bb__threads__queues__running_thread
 .text.system__bb__threads__queues__wakeup_expired_alarms
                0x000000000800fa70       0xe4 C:\gnat\2018-arm-elf\arm-eabi\lib\gnat\ravenscar-sfp-stm32f429disco\adalib\libgnarl.a(s-bbthqu.o)
                0x000000000800fa70                system__bb__threads__queues__wakeup_expired_alarms
 .text.system__bb__threads__queues__yield
                0x000000000800fb54       0x50 C:\gnat\2018-arm-elf\arm-eabi\lib\gnat\ravenscar-sfp-stm32f429disco\adalib\libgnarl.a(s-bbthqu.o)
                0x000000000800fb54                system__bb__threads__queues__yield
 .text          0x000000000800fba4        0x0 C:\gnat\2018-arm-elf\arm-eabi\lib\gnat\ravenscar-sfp-stm32f429disco\adalib\libgnarl.a(s-bbtime.o)
 .text.system__bb__time__composite_execution_timeIP
                0x000000000800fba4        0x4 C:\gnat\2018-arm-elf\arm-eabi\lib\gnat\ravenscar-sfp-stm32f429disco\adalib\libgnarl.a(s-bbtime.o)
                0x000000000800fba4                system__bb__time__composite_execution_timeIP
 .text.system__bb__time__composite_timeIP
                0x000000000800fba8        0xc C:\gnat\2018-arm-elf\arm-eabi\lib\gnat\ravenscar-sfp-stm32f429disco\adalib\libgnarl.a(s-bbtime.o)
                0x000000000800fba8                system__bb__time__composite_timeIP
 .text.system__bb__time__clock
                0x000000000800fbb4       0x5c C:\gnat\2018-arm-elf\arm-eabi\lib\gnat\ravenscar-sfp-stm32f429disco\adalib\libgnarl.a(s-bbtime.o)
                0x000000000800fbb4                system__bb__time__clock
 .text.system__bb__time__epoch
                0x000000000800fc10        0x8 C:\gnat\2018-arm-elf\arm-eabi\lib\gnat\ravenscar-sfp-stm32f429disco\adalib\libgnarl.a(s-bbtime.o)
                0x000000000800fc10                system__bb__time__epoch
 .text.system__bb__time__get_next_timeout
                0x000000000800fc18       0x40 C:\gnat\2018-arm-elf\arm-eabi\lib\gnat\ravenscar-sfp-stm32f429disco\adalib\libgnarl.a(s-bbtime.o)
                0x000000000800fc18                system__bb__time__get_next_timeout
 .text.system__bb__time__initialize_timers
                0x000000000800fc58       0x94 C:\gnat\2018-arm-elf\arm-eabi\lib\gnat\ravenscar-sfp-stm32f429disco\adalib\libgnarl.a(s-bbtime.o)
                0x000000000800fc58                system__bb__time__initialize_timers
 .text.system__bb__time__update_alarm
                0x000000000800fcec       0x98 C:\gnat\2018-arm-elf\arm-eabi\lib\gnat\ravenscar-sfp-stm32f429disco\adalib\libgnarl.a(s-bbtime.o)
                0x000000000800fcec                system__bb__time__update_alarm
 .text.system__bb__time__delay_until
                0x000000000800fd84       0xe0 C:\gnat\2018-arm-elf\arm-eabi\lib\gnat\ravenscar-sfp-stm32f429disco\adalib\libgnarl.a(s-bbtime.o)
                0x000000000800fd84                system__bb__time__delay_until
 .text.system__bb__time__alarm_handler
                0x000000000800fe64       0xb8 C:\gnat\2018-arm-elf\arm-eabi\lib\gnat\ravenscar-sfp-stm32f429disco\adalib\libgnarl.a(s-bbtime.o)
 .text.system__bb__time__Oconcat
                0x000000000800ff1c       0x18 C:\gnat\2018-arm-elf\arm-eabi\lib\gnat\ravenscar-sfp-stm32f429disco\adalib\libgnarl.a(s-bbtime.o)
                0x000000000800ff1c                system__bb__time__Oconcat
 .text          0x000000000800ff34        0x0 C:\gnat\2018-arm-elf\arm-eabi\lib\gnat\ravenscar-sfp-stm32f429disco\adalib\libgnarl.a(s-bcpcst.o)
 .text.system__bb__cpu_primitives__context_switch_trigger__initialize_context_switch
                0x000000000800ff34        0x4 C:\gnat\2018-arm-elf\arm-eabi\lib\gnat\ravenscar-sfp-stm32f429disco\adalib\libgnarl.a(s-bcpcst.o)
                0x000000000800ff34                system__bb__cpu_primitives__context_switch_trigger__initialize_context_switch
 .text.system__bb__cpu_primitives__context_switch_trigger__trigger_context_switch
                0x000000000800ff38       0x10 C:\gnat\2018-arm-elf\arm-eabi\lib\gnat\ravenscar-sfp-stm32f429disco\adalib\libgnarl.a(s-bcpcst.o)
                0x000000000800ff38                system__bb__cpu_primitives__context_switch_trigger__trigger_context_switch
 .text.__gnat_pend_sv_trap
                0x000000000800ff48       0x48 C:\gnat\2018-arm-elf\arm-eabi\lib\gnat\ravenscar-sfp-stm32f429disco\adalib\libgnarl.a(s-bcpcst.o)
                0x000000000800ff48                __gnat_pend_sv_trap
 .text          0x000000000800ff90        0x0 C:\gnat\2018-arm-elf\arm-eabi\lib\gnat\ravenscar-sfp-stm32f429disco\adalib\libgnarl.a(s-taskin.o)
 .text.system__tasking__E5sIP
                0x000000000800ff90        0x8 C:\gnat\2018-arm-elf\arm-eabi\lib\gnat\ravenscar-sfp-stm32f429disco\adalib\libgnarl.a(s-taskin.o)
                0x000000000800ff90                system__tasking__E5sIP
 .text.system__tasking__activation_chainIP
                0x000000000800ff98        0x8 C:\gnat\2018-arm-elf\arm-eabi\lib\gnat\ravenscar-sfp-stm32f429disco\adalib\libgnarl.a(s-taskin.o)
                0x000000000800ff98                system__tasking__activation_chainIP
 .text.__gnat_get_secondary_stack
                0x000000000800ffa0       0x10 C:\gnat\2018-arm-elf\arm-eabi\lib\gnat\ravenscar-sfp-stm32f429disco\adalib\libgnarl.a(s-taskin.o)
                0x000000000800ffa0                __gnat_get_secondary_stack
 .text.system__tasking__initialize_atcb
                0x000000000800ffb0       0x30 C:\gnat\2018-arm-elf\arm-eabi\lib\gnat\ravenscar-sfp-stm32f429disco\adalib\libgnarl.a(s-taskin.o)
                0x000000000800ffb0                system__tasking__initialize_atcb
 .text.system__tasking__initialize
                0x000000000800ffe0      0x174 C:\gnat\2018-arm-elf\arm-eabi\lib\gnat\ravenscar-sfp-stm32f429disco\adalib\libgnarl.a(s-taskin.o)
                0x000000000800ffe0                system__tasking__initialize
 .text.system__tasking__self
                0x0000000008010154        0xc C:\gnat\2018-arm-elf\arm-eabi\lib\gnat\ravenscar-sfp-stm32f429disco\adalib\libgnarl.a(s-taskin.o)
                0x0000000008010154                system__tasking(short,...)(long, float)
 .text.system__tasking__storage_size
                0x0000000008010160        0x8 C:\gnat\2018-arm-elf\arm-eabi\lib\gnat\ravenscar-sfp-stm32f429disco\adalib\libgnarl.a(s-taskin.o)
                0x0000000008010160                system__tasking__storage_size
 *fill*         0x0000000008010168       0x98 
 .text          0x0000000008010200      0x1b8 C:\gnat\2018-arm-elf\arm-eabi\lib\gnat\ravenscar-sfp-stm32f429disco\adalib\libgnarl.a(handler.o)
                0x0000000008010200                __vectors
 .text          0x00000000080103b8        0x0 C:\gnat\2018-arm-elf\arm-eabi\lib\gnat\ravenscar-sfp-stm32f429disco\adalib\libgnarl.a(s-bbprot.o)
 .text.system__bb__protection__enter_kernel
                0x00000000080103b8        0x4 C:\gnat\2018-arm-elf\arm-eabi\lib\gnat\ravenscar-sfp-stm32f429disco\adalib\libgnarl.a(s-bbprot.o)
                0x00000000080103b8                system__bb__protection__enter_kernel
 .text.system__bb__protection__leave_kernel
                0x00000000080103bc       0x4c C:\gnat\2018-arm-elf\arm-eabi\lib\gnat\ravenscar-sfp-stm32f429disco\adalib\libgnarl.a(s-bbprot.o)
                0x00000000080103bc                system__bb__protection__leave_kernel
 .text          0x0000000008010408        0x0 C:\gnat\2018-arm-elf\arm-eabi\lib\gnat\ravenscar-sfp-stm32f429disco\adalib\libgnarl.a(s-bbthre.o)
 .text.system__bb__threads__thread_descriptorIP
                0x0000000008010408        0xc C:\gnat\2018-arm-elf\arm-eabi\lib\gnat\ravenscar-sfp-stm32f429disco\adalib\libgnarl.a(s-bbthre.o)
                0x0000000008010408                system__bb__threads__thread_descriptorIP
 .text.system__bb__threads__get_affinity
                0x0000000008010414        0x8 C:\gnat\2018-arm-elf\arm-eabi\lib\gnat\ravenscar-sfp-stm32f429disco\adalib\libgnarl.a(s-bbthre.o)
                0x0000000008010414                system__bb__threads__get_affinity
 .text.system__bb__threads__get_cpu
                0x000000000801041c        0xc C:\gnat\2018-arm-elf\arm-eabi\lib\gnat\ravenscar-sfp-stm32f429disco\adalib\libgnarl.a(s-bbthre.o)
                0x000000000801041c                system__bb__threads__get_cpu
 .text.system__bb__threads__get_atcb
                0x0000000008010428        0xc C:\gnat\2018-arm-elf\arm-eabi\lib\gnat\ravenscar-sfp-stm32f429disco\adalib\libgnarl.a(s-bbthre.o)
                0x0000000008010428                system__bb__threads__get_atcb
 .text.system__bb__threads__get_priority
                0x0000000008010434        0x4 C:\gnat\2018-arm-elf\arm-eabi\lib\gnat\ravenscar-sfp-stm32f429disco\adalib\libgnarl.a(s-bbthre.o)
                0x0000000008010434                system__bb__threads__get_priority
 .text.system__bb__threads__initialize
                0x0000000008010438      0x150 C:\gnat\2018-arm-elf\arm-eabi\lib\gnat\ravenscar-sfp-stm32f429disco\adalib\libgnarl.a(s-bbthre.o)
                0x0000000008010438                system__bb__threads__initialize
 .text.system__bb__threads__initialize_slave
                0x0000000008010588       0xa0 C:\gnat\2018-arm-elf\arm-eabi\lib\gnat\ravenscar-sfp-stm32f429disco\adalib\libgnarl.a(s-bbthre.o)
                0x0000000008010588                system__bb__threads__initialize_slave
 .text.system__bb__threads__set_atcb
                0x0000000008010628        0x4 C:\gnat\2018-arm-elf\arm-eabi\lib\gnat\ravenscar-sfp-stm32f429disco\adalib\libgnarl.a(s-bbthre.o)
                0x0000000008010628                system__bb__threads__set_atcb
 .text.system__bb__threads__set_priority
                0x000000000801062c       0x1c C:\gnat\2018-arm-elf\arm-eabi\lib\gnat\ravenscar-sfp-stm32f429disco\adalib\libgnarl.a(s-bbthre.o)
                0x000000000801062c                system__bb__threads__set_priority
 .text.system__bb__threads__sleep
                0x0000000008010648       0x48 C:\gnat\2018-arm-elf\arm-eabi\lib\gnat\ravenscar-sfp-stm32f429disco\adalib\libgnarl.a(s-bbthre.o)
                0x0000000008010648                system__bb__threads(short, long,...)(...)( *)
 .text.system__bb__threads__thread_create
                0x0000000008010690      0x104 C:\gnat\2018-arm-elf\arm-eabi\lib\gnat\ravenscar-sfp-stm32f429disco\adalib\libgnarl.a(s-bbthre.o)
                0x0000000008010690                system__bb__threads__thread_create
 .text.system__bb__threads__thread_self
                0x0000000008010794        0xc C:\gnat\2018-arm-elf\arm-eabi\lib\gnat\ravenscar-sfp-stm32f429disco\adalib\libgnarl.a(s-bbthre.o)
                0x0000000008010794                system__bb__threads__thread_self
 .text.system__bb__threads__wakeup
                0x00000000080107a0       0x94 C:\gnat\2018-arm-elf\arm-eabi\lib\gnat\ravenscar-sfp-stm32f429disco\adalib\libgnarl.a(s-bbthre.o)
                0x00000000080107a0                system__bb__threads__wakeup
 .text          0x0000000008010834        0x0 C:\gnat\2018-arm-elf\arm-eabi\lib\gnat\ravenscar-sfp-stm32f429disco\adalib\libgnarl.a(s-bbtiev.o)
 .text.system__bb__timing_events___size
                0x0000000008010834        0x8 C:\gnat\2018-arm-elf\arm-eabi\lib\gnat\ravenscar-sfp-stm32f429disco\adalib\libgnarl.a(s-bbtiev.o)
                0x0000000008010834                system__bb__timing_events___size
 .text.system__bb__timing_events__time_of_event
                0x000000000801083c       0x10 C:\gnat\2018-arm-elf\arm-eabi\lib\gnat\ravenscar-sfp-stm32f429disco\adalib\libgnarl.a(s-bbtiev.o)
                0x000000000801083c                system__bb__timing_events__time_of_event
 .text.system__bb__timing_events__set_handler
                0x000000000801084c       0xa4 C:\gnat\2018-arm-elf\arm-eabi\lib\gnat\ravenscar-sfp-stm32f429disco\adalib\libgnarl.a(s-bbtiev.o)
                0x000000000801084c                system__bb__timing_events__set_handler
 .text.system__bb__timing_events__cancel_handler
                0x00000000080108f0       0x5c C:\gnat\2018-arm-elf\arm-eabi\lib\gnat\ravenscar-sfp-stm32f429disco\adalib\libgnarl.a(s-bbtiev.o)
                0x00000000080108f0                system__bb__timing_events__cancel_handler
 .text.system__bb__timing_events__timing_eventIP
                0x000000000801094c       0x1c C:\gnat\2018-arm-elf\arm-eabi\lib\gnat\ravenscar-sfp-stm32f429disco\adalib\libgnarl.a(s-bbtiev.o)
                0x000000000801094c                system__bb__timing_events__timing_eventIP
 .text.system__bb__timing_events__execute_expired_timing_events
                0x0000000008010968       0x78 C:\gnat\2018-arm-elf\arm-eabi\lib\gnat\ravenscar-sfp-stm32f429disco\adalib\libgnarl.a(s-bbtiev.o)
                0x0000000008010968                system__bb__timing_events__execute_expired_timing_events
 .text.system__bb__timing_events__get_next_timeout
                0x00000000080109e0       0x24 C:\gnat\2018-arm-elf\arm-eabi\lib\gnat\ravenscar-sfp-stm32f429disco\adalib\libgnarl.a(s-bbtiev.o)
                0x00000000080109e0                system__bb__timing_events__get_next_timeout
 .text          0x0000000008010a04        0x0 C:\gnat\2018-arm-elf\arm-eabi\lib\gnat\ravenscar-sfp-stm32f429disco\adalib\libgnarl.a(s-taprop.o)
 .text.system__task_primitives__operations__Tidle_stacksBIP
                0x0000000008010a04        0x4 C:\gnat\2018-arm-elf\arm-eabi\lib\gnat\ravenscar-sfp-stm32f429disco\adalib\libgnarl.a(s-taprop.o)
                0x0000000008010a04                system__task_primitives__operations__Tidle_stacksBIP
 .text.system__task_primitives__operations__Tidle_stacks_tableBIP
                0x0000000008010a08        0x4 C:\gnat\2018-arm-elf\arm-eabi\lib\gnat\ravenscar-sfp-stm32f429disco\adalib\libgnarl.a(s-taprop.o)
                0x0000000008010a08                system__task_primitives__operations__Tidle_stacks_tableBIP
 .text.system__task_primitives__operations__Tidle_tasksBIP
                0x0000000008010a0c        0x4 C:\gnat\2018-arm-elf\arm-eabi\lib\gnat\ravenscar-sfp-stm32f429disco\adalib\libgnarl.a(s-taprop.o)
                0x0000000008010a0c                system__task_primitives__operations__Tidle_tasksBIP
 .text.system__task_primitives__operations__self
                0x0000000008010a10        0xc C:\gnat\2018-arm-elf\arm-eabi\lib\gnat\ravenscar-sfp-stm32f429disco\adalib\libgnarl.a(s-taprop.o)
                0x0000000008010a10                system__task_primitives__operations(short,...)(long, float)
 .text.system__task_primitives__operations__sleep
                0x0000000008010a1c        0x4 C:\gnat\2018-arm-elf\arm-eabi\lib\gnat\ravenscar-sfp-stm32f429disco\adalib\libgnarl.a(s-taprop.o)
                0x0000000008010a1c                system__task_primitives__operations(short, long,...)(...)( *)
 .text.system__task_primitives__operations__delay_until
                0x0000000008010a20       0x1c C:\gnat\2018-arm-elf\arm-eabi\lib\gnat\ravenscar-sfp-stm32f429disco\adalib\libgnarl.a(s-taprop.o)
                0x0000000008010a20                system__task_primitives__operations__delay_until
 .text.system__task_primitives__operations__monotonic_clock
                0x0000000008010a3c       0x60 C:\gnat\2018-arm-elf\arm-eabi\lib\gnat\ravenscar-sfp-stm32f429disco\adalib\libgnarl.a(s-taprop.o)
                0x0000000008010a3c                system__task_primitives__operations__monotonic_clock
 .text.system__task_primitives__operations__wakeup
                0x0000000008010a9c        0x8 C:\gnat\2018-arm-elf\arm-eabi\lib\gnat\ravenscar-sfp-stm32f429disco\adalib\libgnarl.a(s-taprop.o)
                0x0000000008010a9c                system__task_primitives__operations__wakeup
 .text.system__task_primitives__operations__set_priority
                0x0000000008010aa4       0x18 C:\gnat\2018-arm-elf\arm-eabi\lib\gnat\ravenscar-sfp-stm32f429disco\adalib\libgnarl.a(s-taprop.o)
                0x0000000008010aa4                system__task_primitives__operations__set_priority
 .text.system__task_primitives__operations__get_priority
                0x0000000008010abc        0x8 C:\gnat\2018-arm-elf\arm-eabi\lib\gnat\ravenscar-sfp-stm32f429disco\adalib\libgnarl.a(s-taprop.o)
                0x0000000008010abc                system__task_primitives__operations__get_priority
 .text.system__task_primitives__operations__get_affinity
                0x0000000008010ac4        0xc C:\gnat\2018-arm-elf\arm-eabi\lib\gnat\ravenscar-sfp-stm32f429disco\adalib\libgnarl.a(s-taprop.o)
                0x0000000008010ac4                system__task_primitives__operations__get_affinity
 .text.system__task_primitives__operations__get_cpu
                0x0000000008010ad0       0x10 C:\gnat\2018-arm-elf\arm-eabi\lib\gnat\ravenscar-sfp-stm32f429disco\adalib\libgnarl.a(s-taprop.o)
                0x0000000008010ad0                system__task_primitives__operations__get_cpu
 .text.system__task_primitives__operations__get_thread_id
                0x0000000008010ae0        0x8 C:\gnat\2018-arm-elf\arm-eabi\lib\gnat\ravenscar-sfp-stm32f429disco\adalib\libgnarl.a(s-taprop.o)
                0x0000000008010ae0                system__task_primitives__operations__get_thread_id
 .text.system__task_primitives__operations__enter_task
                0x0000000008010ae8       0x3c C:\gnat\2018-arm-elf\arm-eabi\lib\gnat\ravenscar-sfp-stm32f429disco\adalib\libgnarl.a(s-taprop.o)
                0x0000000008010ae8                system__task_primitives__operations__enter_task
 .text.system__task_primitives__operations__idle
                0x0000000008010b24       0x14 C:\gnat\2018-arm-elf\arm-eabi\lib\gnat\ravenscar-sfp-stm32f429disco\adalib\libgnarl.a(s-taprop.o)
                0x0000000008010b24                system__task_primitives__operations(int, double, long,...)
 .text.system__task_primitives__operations__initialize_tcb
                0x0000000008010b38        0x4 C:\gnat\2018-arm-elf\arm-eabi\lib\gnat\ravenscar-sfp-stm32f429disco\adalib\libgnarl.a(s-taprop.o)
                0x0000000008010b38                system__task_primitives__operations__initialize_tcb
 .text.system__task_primitives__operations__create_task
                0x0000000008010b3c       0x34 C:\gnat\2018-arm-elf\arm-eabi\lib\gnat\ravenscar-sfp-stm32f429disco\adalib\libgnarl.a(s-taprop.o)
                0x0000000008010b3c                system__task_primitives__operations__create_task
 .text.system__task_primitives__operations__initialize_idle
                0x0000000008010b70       0x60 C:\gnat\2018-arm-elf\arm-eabi\lib\gnat\ravenscar-sfp-stm32f429disco\adalib\libgnarl.a(s-taprop.o)
                0x0000000008010b70                system__task_primitives__operations__initialize_idle
 .text.__gnat_initialize_slave
                0x0000000008010bd0       0x34 C:\gnat\2018-arm-elf\arm-eabi\lib\gnat\ravenscar-sfp-stm32f429disco\adalib\libgnarl.a(s-taprop.o)
                0x0000000008010bd0                __gnat_initialize_slave
 .text.system__task_primitives__operations__initialize
                0x0000000008010c04       0xac C:\gnat\2018-arm-elf\arm-eabi\lib\gnat\ravenscar-sfp-stm32f429disco\adalib\libgnarl.a(s-taprop.o)
                0x0000000008010c04                system__task_primitives__operations__initialize
 .text.system__task_primitives__operations__is_task_context
                0x0000000008010cb0       0x14 C:\gnat\2018-arm-elf\arm-eabi\lib\gnat\ravenscar-sfp-stm32f429disco\adalib\libgnarl.a(s-taprop.o)
                0x0000000008010cb0                system__task_primitives__operations__is_task_context
 .text          0x0000000008010cc4        0x0 C:\gnat\2018-arm-elf\arm-eabi\lib\gnat\ravenscar-sfp-stm32f429disco\adalib\libgnarl.a(s-tasdeb.o)
 .text.system__tasking__debug__add_task_id
                0x0000000008010cc4       0x3c C:\gnat\2018-arm-elf\arm-eabi\lib\gnat\ravenscar-sfp-stm32f429disco\adalib\libgnarl.a(s-tasdeb.o)
                0x0000000008010cc4                system__tasking__debug__add_task_id
 .text          0x0000000008010d00        0x0 C:\gnat\2018-arm-elf\arm-eabi\lib\gnat\ravenscar-sfp-stm32f429disco\adalib\libgnat.a(a-elchha.o)
 .text.__gnat_last_chance_handler
                0x0000000008010d00       0x84 C:\gnat\2018-arm-elf\arm-eabi\lib\gnat\ravenscar-sfp-stm32f429disco\adalib\libgnat.a(a-elchha.o)
                0x0000000008010d00                __gnat_last_chance_handler
 .text          0x0000000008010d84        0x0 C:\gnat\2018-arm-elf\arm-eabi\lib\gnat\ravenscar-sfp-stm32f429disco\adalib\libgnat.a(a-except.o)
 .text          0x0000000008010d84       0x20 C:\gnat\2018-arm-elf\arm-eabi\lib\gnat\ravenscar-sfp-stm32f429disco\adalib\libgnat.a(breakpoint_handler-cortexm.o)
                0x0000000008010d84                __gnat_bkpt_trap
 .text          0x0000000008010da4        0x0 C:\gnat\2018-arm-elf\arm-eabi\lib\gnat\ravenscar-sfp-stm32f429disco\adalib\libgnat.a(g-io.o)
 .text.gnat__io__put__2
                0x0000000008010da4       0x44 C:\gnat\2018-arm-elf\arm-eabi\lib\gnat\ravenscar-sfp-stm32f429disco\adalib\libgnat.a(g-io.o)
                0x0000000008010da4                gnat__io__put__2
 .text.gnat__io__new_line
                0x0000000008010de8       0x14 C:\gnat\2018-arm-elf\arm-eabi\lib\gnat\ravenscar-sfp-stm32f429disco\adalib\libgnat.a(g-io.o)
                0x0000000008010de8                gnat__io__new_line
 .text.gnat__io__put__3
                0x0000000008010dfc       0x20 C:\gnat\2018-arm-elf\arm-eabi\lib\gnat\ravenscar-sfp-stm32f429disco\adalib\libgnat.a(g-io.o)
                0x0000000008010dfc                gnat__io__put__3
 .text.gnat__io__put
                0x0000000008010e1c       0x70 C:\gnat\2018-arm-elf\arm-eabi\lib\gnat\ravenscar-sfp-stm32f429disco\adalib\libgnat.a(g-io.o)
                0x0000000008010e1c                gnat__io__put
 .text.gnat__io__put_line
                0x0000000008010e8c       0x10 C:\gnat\2018-arm-elf\arm-eabi\lib\gnat\ravenscar-sfp-stm32f429disco\adalib\libgnat.a(g-io.o)
                0x0000000008010e8c                gnat__io__put_line
 .text          0x0000000008010e9c        0x0 C:\gnat\2018-arm-elf\arm-eabi\lib\gnat\ravenscar-sfp-stm32f429disco\adalib\libgnat.a(s-macres.o)
 .text.abort    0x0000000008010e9c       0x10 C:\gnat\2018-arm-elf\arm-eabi\lib\gnat\ravenscar-sfp-stm32f429disco\adalib\libgnat.a(s-macres.o)
                0x0000000008010e9c                abort
 .text._exit    0x0000000008010eac       0x10 C:\gnat\2018-arm-elf\arm-eabi\lib\gnat\ravenscar-sfp-stm32f429disco\adalib\libgnat.a(s-macres.o)
                0x0000000008010eac                _exit
 .text.system__machine_reset__stop
                0x0000000008010ebc       0x10 C:\gnat\2018-arm-elf\arm-eabi\lib\gnat\ravenscar-sfp-stm32f429disco\adalib\libgnat.a(s-macres.o)
                0x0000000008010ebc                system__machine_reset__stop
 .text          0x0000000008010ecc        0x0 C:\gnat\2018-arm-elf\arm-eabi\lib\gnat\ravenscar-sfp-stm32f429disco\adalib\libgnat.a(s-memcop.o)
 .text.memcpy   0x0000000008010ecc       0x48 C:\gnat\2018-arm-elf\arm-eabi\lib\gnat\ravenscar-sfp-stm32f429disco\adalib\libgnat.a(s-memcop.o)
                0x0000000008010ecc                memcpy
 .text          0x0000000008010f14        0x0 C:\gnat\2018-arm-elf\arm-eabi\lib\gnat\ravenscar-sfp-stm32f429disco\adalib\libgnat.a(s-memmov.o)
 .text.memmove  0x0000000008010f14       0xa8 C:\gnat\2018-arm-elf\arm-eabi\lib\gnat\ravenscar-sfp-stm32f429disco\adalib\libgnat.a(s-memmov.o)
                0x0000000008010f14                memmove
 .text          0x0000000008010fbc        0x0 C:\gnat\2018-arm-elf\arm-eabi\lib\gnat\ravenscar-sfp-stm32f429disco\adalib\libgnat.a(s-memset.o)
 .text.memset   0x0000000008010fbc       0x50 C:\gnat\2018-arm-elf\arm-eabi\lib\gnat\ravenscar-sfp-stm32f429disco\adalib\libgnat.a(s-memset.o)
                0x0000000008010fbc                memset
 .text          0x000000000801100c        0x0 C:\gnat\2018-arm-elf\arm-eabi\lib\gnat\ravenscar-sfp-stm32f429disco\adalib\libgnat.a(s-parame.o)
 .text.system__parameters__adjust_storage_size
                0x000000000801100c        0xc C:\gnat\2018-arm-elf\arm-eabi\lib\gnat\ravenscar-sfp-stm32f429disco\adalib\libgnat.a(s-parame.o)
                0x000000000801100c                system__parameters__adjust_storage_size
 .text          0x0000000008011018        0x0 C:\gnat\2018-arm-elf\arm-eabi\lib\gnat\ravenscar-sfp-stm32f429disco\adalib\libgnat.a(s-secsta.o)
 .text.system__secondary_stack__memoryIP
                0x0000000008011018        0x4 C:\gnat\2018-arm-elf\arm-eabi\lib\gnat\ravenscar-sfp-stm32f429disco\adalib\libgnat.a(s-secsta.o)
                0x0000000008011018                system__secondary_stack__memoryIP
 .text.system__secondary_stack__ss_stackIP
                0x000000000801101c        0x4 C:\gnat\2018-arm-elf\arm-eabi\lib\gnat\ravenscar-sfp-stm32f429disco\adalib\libgnat.a(s-secsta.o)
                0x000000000801101c                system__secondary_stack__ss_stackIP
 .text.system__secondary_stack__ss_allocate
                0x0000000008011020       0x60 C:\gnat\2018-arm-elf\arm-eabi\lib\gnat\ravenscar-sfp-stm32f429disco\adalib\libgnat.a(s-secsta.o)
                0x0000000008011020                system__secondary_stack__ss_allocate
 .text.system__secondary_stack__ss_get_max
                0x0000000008011080       0x10 C:\gnat\2018-arm-elf\arm-eabi\lib\gnat\ravenscar-sfp-stm32f429disco\adalib\libgnat.a(s-secsta.o)
                0x0000000008011080                system__secondary_stack__ss_get_max
 .text.system__secondary_stack__ss_init
                0x0000000008011090       0x6c C:\gnat\2018-arm-elf\arm-eabi\lib\gnat\ravenscar-sfp-stm32f429disco\adalib\libgnat.a(s-secsta.o)
                0x0000000008011090                system__secondary_stack__ss_init
 .text.system__secondary_stack__ss_mark
                0x00000000080110fc        0xc C:\gnat\2018-arm-elf\arm-eabi\lib\gnat\ravenscar-sfp-stm32f429disco\adalib\libgnat.a(s-secsta.o)
                0x00000000080110fc                system__secondary_stack__ss_mark
 .text.system__secondary_stack__ss_release
                0x0000000008011108        0xc C:\gnat\2018-arm-elf\arm-eabi\lib\gnat\ravenscar-sfp-stm32f429disco\adalib\libgnat.a(s-secsta.o)
                0x0000000008011108                system__secondary_stack__ss_release
 .text          0x0000000008011114        0x0 C:\gnat\2018-arm-elf\arm-eabi\lib\gnat\ravenscar-sfp-stm32f429disco\adalib\libgnat.a(s-textio.o)
 .text.system__text_io__initialize
                0x0000000008011114        0xc C:\gnat\2018-arm-elf\arm-eabi\lib\gnat\ravenscar-sfp-stm32f429disco\adalib\libgnat.a(s-textio.o)
                0x0000000008011114                system__text_io__initialize
 .text.system__text_io__is_tx_ready
                0x0000000008011120        0x4 C:\gnat\2018-arm-elf\arm-eabi\lib\gnat\ravenscar-sfp-stm32f429disco\adalib\libgnat.a(s-textio.o)
                0x0000000008011120                system__text_io__is_tx_ready
 .text.system__text_io__is_rx_ready
                0x0000000008011124        0x4 C:\gnat\2018-arm-elf\arm-eabi\lib\gnat\ravenscar-sfp-stm32f429disco\adalib\libgnat.a(s-textio.o)
                0x0000000008011124                system__text_io__is_rx_ready
 .text.system__text_io__get
                0x0000000008011128        0x4 C:\gnat\2018-arm-elf\arm-eabi\lib\gnat\ravenscar-sfp-stm32f429disco\adalib\libgnat.a(s-textio.o)
                0x0000000008011128                system__text_io__get
 .text.system__text_io__put
                0x000000000801112c        0x4 C:\gnat\2018-arm-elf\arm-eabi\lib\gnat\ravenscar-sfp-stm32f429disco\adalib\libgnat.a(s-textio.o)
                0x000000000801112c                system__text_io__put
 .text.system__text_io__use_cr_lf_for_new_line
                0x0000000008011130        0x4 C:\gnat\2018-arm-elf\arm-eabi\lib\gnat\ravenscar-sfp-stm32f429disco\adalib\libgnat.a(s-textio.o)
                0x0000000008011130                system__text_io__use_cr_lf_for_new_line
 .text          0x0000000008011134       0x70 C:\gnat\2018-arm-elf\arm-eabi\lib\gnat\ravenscar-sfp-stm32f429disco\adalib\libgnat.a(start-rom.o)
                0x0000000008011134                _start_rom
 .text          0x00000000080111a4        0x0 C:\gnat\2018-arm-elf\arm-eabi\lib\gnat\ravenscar-sfp-stm32f429disco\adalib\libgnat.a(s-semiho.o)
 .text.system__semihosting__TbufferBIP
                0x00000000080111a4        0x4 C:\gnat\2018-arm-elf\arm-eabi\lib\gnat\ravenscar-sfp-stm32f429disco\adalib\libgnat.a(s-semiho.o)
                0x00000000080111a4                system__semihosting__TbufferBIP
 .text.system__semihosting__put
                0x00000000080111a8       0x7c C:\gnat\2018-arm-elf\arm-eabi\lib\gnat\ravenscar-sfp-stm32f429disco\adalib\libgnat.a(s-semiho.o)
                0x00000000080111a8                system__semihosting__put
 .text.system__semihosting__put__2
                0x0000000008011224       0x20 C:\gnat\2018-arm-elf\arm-eabi\lib\gnat\ravenscar-sfp-stm32f429disco\adalib\libgnat.a(s-semiho.o)
                0x0000000008011224                system__semihosting__put__2
 .text.system__semihosting__get
                0x0000000008011244       0x10 C:\gnat\2018-arm-elf\arm-eabi\lib\gnat\ravenscar-sfp-stm32f429disco\adalib\libgnat.a(s-semiho.o)
                0x0000000008011244                system__semihosting__get
 .text          0x0000000008011254        0x0 C:\gnat\2018-arm-elf\arm-eabi\lib\gnat\ravenscar-sfp-stm32f429disco\adalib\libgnat.a(setup_pll.o)
 .text._ada_setup_pll
                0x0000000008011254      0x39c C:\gnat\2018-arm-elf\arm-eabi\lib\gnat\ravenscar-sfp-stm32f429disco\adalib\libgnat.a(setup_pll.o)
                0x0000000008011254                _ada_setup_pll
 .text          0x00000000080115f0      0x104 C:\gnat\2018-arm-elf\arm-eabi\lib\gnat\ravenscar-sfp-stm32f429disco\adalib\libgnat.a(start-common.o)
                0x00000000080115f0                _stm32_start_common
 .text          0x00000000080116f4        0x0 C:\gnat\2018-arm-elf\arm-eabi\lib\gnat\ravenscar-sfp-stm32f429disco\adalib\libgnat.a(s-bbmcpa.o)
 .text.system__bb__mcu_parameters__is_pwr_stabilized
                0x00000000080116f4       0x10 C:\gnat\2018-arm-elf\arm-eabi\lib\gnat\ravenscar-sfp-stm32f429disco\adalib\libgnat.a(s-bbmcpa.o)
                0x00000000080116f4                system__bb__mcu_parameters__is_pwr_stabilized
 .text.system__bb__mcu_parameters__pwr_initialize
                0x0000000008011704       0x10 C:\gnat\2018-arm-elf\arm-eabi\lib\gnat\ravenscar-sfp-stm32f429disco\adalib\libgnat.a(s-bbmcpa.o)
                0x0000000008011704                system__bb__mcu_parameters__pwr_initialize
 .text.system__bb__mcu_parameters__pwr_overdrive_enable
                0x0000000008011714       0x2c C:\gnat\2018-arm-elf\arm-eabi\lib\gnat\ravenscar-sfp-stm32f429disco\adalib\libgnat.a(s-bbmcpa.o)
                0x0000000008011714                system__bb__mcu_parameters__pwr_overdrive_enable
 .text          0x0000000008011740      0x378 c:/gnat/2018-arm-elf/bin/../lib/gcc/arm-eabi/7.3.1/thumb/v7e-m/fpv4-sp/hard\libgcc.a(_arm_addsubdf3.o)
                0x0000000008011740                __aeabi_drsub
                0x0000000008011748                __aeabi_dsub
                0x0000000008011748                __subdf3
                0x000000000801174c                __aeabi_dadd
                0x000000000801174c                __adddf3
                0x00000000080119c4                __floatunsidf
                0x00000000080119c4                __aeabi_ui2d
                0x00000000080119e4                __floatsidf
                0x00000000080119e4                __aeabi_i2d
                0x0000000008011a08                __aeabi_f2d
                0x0000000008011a08                __extendsfdf2
                0x0000000008011a4c                __floatundidf
                0x0000000008011a4c                __aeabi_ul2d
                0x0000000008011a5c                __floatdidf
                0x0000000008011a5c                __aeabi_l2d
 .text          0x0000000008011ab8       0x50 c:/gnat/2018-arm-elf/bin/../lib/gcc/arm-eabi/7.3.1/thumb/v7e-m/fpv4-sp/hard\libgcc.a(_arm_fixdfsi.o)
                0x0000000008011ab8                __aeabi_d2iz
                0x0000000008011ab8                __fixdfsi
 .text          0x0000000008011b08       0xa0 c:/gnat/2018-arm-elf/bin/../lib/gcc/arm-eabi/7.3.1/thumb/v7e-m/fpv4-sp/hard\libgcc.a(_aeabi_ldivmod.o)
                0x0000000008011b08                __aeabi_ldivmod
 .text          0x0000000008011ba8       0x30 c:/gnat/2018-arm-elf/bin/../lib/gcc/arm-eabi/7.3.1/thumb/v7e-m/fpv4-sp/hard\libgcc.a(_aeabi_uldivmod.o)
                0x0000000008011ba8                __aeabi_uldivmod
 .text          0x0000000008011bd8      0x2cc c:/gnat/2018-arm-elf/bin/../lib/gcc/arm-eabi/7.3.1/thumb/v7e-m/fpv4-sp/hard\libgcc.a(_udivmoddi4.o)
                0x0000000008011bd8                __udivmoddi4
 .text          0x0000000008011ea4        0x4 c:/gnat/2018-arm-elf/bin/../lib/gcc/arm-eabi/7.3.1/thumb/v7e-m/fpv4-sp/hard\libgcc.a(_dvmd_tls.o)
                0x0000000008011ea4                __aeabi_idiv0
                0x0000000008011ea4                __aeabi_ldiv0
 *(.gnu.warning)

.glue_7         0x0000000008011ea8        0x0
 .glue_7        0x0000000008011ea8        0x0 linker stubs

.glue_7t        0x0000000008011ea8        0x0
 .glue_7t       0x0000000008011ea8        0x0 linker stubs

.vfp11_veneer   0x0000000008011ea8        0x0
 .vfp11_veneer  0x0000000008011ea8        0x0 linker stubs

.v4_bx          0x0000000008011ea8        0x0
 .v4_bx         0x0000000008011ea8        0x0 linker stubs

.iplt           0x0000000008011ea8        0x0
 .iplt          0x0000000008011ea8        0x0 main.o

.ARM.extab      0x0000000008011ea8        0x0
 *(.ARM.extab* .gnu.linkonce.armextab.*)
 .ARM.extab     0x0000000008011ea8        0x0 c:/gnat/2018-arm-elf/bin/../lib/gcc/arm-eabi/7.3.1/thumb/v7e-m/fpv4-sp/hard\libgcc.a(_udivmoddi4.o)

.ARM.exidx      0x0000000008011ea8        0x8
                [!provide]                        PROVIDE (__exidx_start, .)
 *(.ARM.exidx* .gnu.linkonce.armexidx.*)
 .ARM.exidx     0x0000000008011ea8        0x8 c:/gnat/2018-arm-elf/bin/../lib/gcc/arm-eabi/7.3.1/thumb/v7e-m/fpv4-sp/hard\libgcc.a(_udivmoddi4.o)
                [!provide]                        PROVIDE (__exidx_end, .)

.rodata         0x0000000008011eb0     0x4134
 *(.lit)
 *(.rodata .rodata.* .gnu.linkonce.r*)
 .rodata        0x0000000008011eb0       0x1c main.o
 .rodata        0x0000000008011ecc       0x3e b__main.o
                0x0000000008011ed4                __gnat_version
                0x0000000008011f00                __gnat_ada_main_program_name
 *fill*         0x0000000008011f0a        0x2 
 .rodata        0x0000000008011f0c       0x38 C:\Users\Milie\Desktop\EIDD\3A\TempsReelADA\base\game_support\obj\display.o
                0x0000000008011f0c                display__display_errorE
                0x0000000008011f24                display__R2s
                0x0000000008011f28                display__button_typeS
                0x0000000008011f34                display__button_typeN
                0x0000000008011f38                display__no_mouse_position
 .rodata        0x0000000008011f44      0x52c C:\Users\Milie\Desktop\EIDD\3A\TempsReelADA\base\game_support\stm32f4\obj\stm32f4-dma.o
                0x0000000008011f64                stm32f4__dma__memory_buffer_targetS
                0x0000000008011f84                stm32f4__dma__memory_buffer_targetN
                0x0000000008011f88                stm32f4__dma__dma_channel_selectorS
                0x0000000008011fd0                stm32f4__dma__dma_channel_selectorN
                0x0000000008011fdc                stm32f4__dma__dma_data_transfer_directionS
                0x0000000008012014                stm32f4__dma__dma_data_transfer_directionN
                0x0000000008012018                stm32f4__dma__dma_data_transfer_widthsS
                0x000000000801202c                stm32f4__dma__dma_data_transfer_widthsN
                0x0000000008012030                stm32f4__dma__dma_modeS
                0x0000000008012064                stm32f4__dma__dma_modeN
                0x0000000008012068                stm32f4__dma__dma_priority_levelS
                0x00000000080120a4                stm32f4__dma__dma_priority_levelN
                0x00000000080120ac                stm32f4__dma__dma_fifo_threshold_levelS
                0x0000000008012148                stm32f4__dma__dma_fifo_threshold_levelN
                0x0000000008012154                stm32f4__dma__dma_memory_burstS
                0x000000000801219c                stm32f4__dma__dma_memory_burstN
                0x00000000080121a4                stm32f4__dma__dma_peripheral_burstS
                0x00000000080121fc                stm32f4__dma__dma_peripheral_burstN
                0x0000000008012204                stm32f4__dma__dma_status_flagS
                0x0000000008012288                stm32f4__dma__dma_status_flagN
                0x0000000008012294                stm32f4__dma__status_flag_bits
                0x00000000080122a8                stm32f4__dma__dma_fifo_filling_stateS
                0x0000000008012300                stm32f4__dma__dma_fifo_filling_stateN
                0x0000000008012308                stm32f4__dma__dma_stream_selectorS
                0x0000000008012348                stm32f4__dma__dma_stream_selectorN
                0x0000000008012354                stm32f4__dma__dma_interruptS
                0x00000000080123d8                stm32f4__dma__dma_interruptN
                0x00000000080123e4                stm32f4__dma__dma_error_codeS
                0x0000000008012448                stm32f4__dma__dma_error_codeN
                0x0000000008012450                stm32f4__dma__dma_transfer_levelS
                0x000000000801246c                stm32f4__dma__dma_transfer_levelN
 .rodata        0x0000000008012470       0x28 C:\Users\Milie\Desktop\EIDD\3A\TempsReelADA\base\game_support\stm32f4\obj\stm32f4-fmc.o
                0x0000000008012480                stm32f4__fmc__bank1
                0x0000000008012484                stm32f4__fmc__bank1e
                0x0000000008012488                stm32f4__fmc__bank2
                0x000000000801248c                stm32f4__fmc__bank3
                0x0000000008012490                stm32f4__fmc__bank4
                0x0000000008012494                stm32f4__fmc__bank5_6
 .rodata        0x0000000008012498       0x74 C:\Users\Milie\Desktop\EIDD\3A\TempsReelADA\base\game_support\stm32f4\obj\stm32f4-rcc.o
                0x00000000080124a8                stm32f4__rcc__register
                0x00000000080124ac                stm32f4__rcc__hpre_presc_table
                0x00000000080124ec                stm32f4__rcc__ppre_presc_table
 .rodata        0x000000000801250c       0xa4 C:\Users\Milie\Desktop\EIDD\3A\TempsReelADA\base\game_support\stm32f4\obj\stm32f4-syscfg.o
                0x0000000008012520                stm32f4__syscfg__gpio_port_idS
                0x000000000801259c                stm32f4__syscfg__gpio_port_idN
                0x00000000080125a8                stm32f4__syscfg__exti
                0x00000000080125ac                stm32f4__syscfg__syscfg
 .rodata        0x00000000080125b0      0x21a C:\Users\Milie\Desktop\EIDD\3A\TempsReelADA\base\game_support\stm32f4\obj\stm32f4-gpio.o
                0x00000000080125c4                stm32f4__gpio__gpio_pinS
                0x000000000801261c                stm32f4__gpio__gpio_pinN
                0x0000000008012630                stm32f4__gpio__gpio_pinA
                0x0000000008012650                stm32f4__gpio__all_pins
                0x0000000008012670                stm32f4__gpio__external_triggersS
                0x00000000080126f4                stm32f4__gpio__external_triggersN
                0x0000000008012704                stm32f4__gpio__pin_io_modesS
                0x0000000008012728                stm32f4__gpio__pin_io_modesN
                0x0000000008012730                stm32f4__gpio__pin_output_typesS
                0x0000000008012744                stm32f4__gpio__pin_output_typesN
                0x0000000008012748                stm32f4__gpio__pin_output_speedsS
                0x0000000008012774                stm32f4__gpio__pin_output_speedsN
                0x000000000801277c                stm32f4__gpio__internal_pin_resistorsS
                0x0000000008012794                stm32f4__gpio__internal_pin_resistorsN
                0x0000000008012798                stm32f4__gpio__lcck
                0x000000000801279c                stm32f4__gpio__gpio_af_rtc_50hz
                0x000000000801279d                stm32f4__gpio__gpio_af_mco
                0x000000000801279e                stm32f4__gpio__gpio_af_tamper
                0x000000000801279f                stm32f4__gpio__gpio_af_swj
                0x00000000080127a0                stm32f4__gpio__gpio_af_trace
                0x00000000080127a1                stm32f4__gpio__gpio_af_tim1
                0x00000000080127a2                stm32f4__gpio__gpio_af_tim2
                0x00000000080127a3                stm32f4__gpio__gpio_af_tim3
                0x00000000080127a4                stm32f4__gpio__gpio_af_tim4
                0x00000000080127a5                stm32f4__gpio__gpio_af_tim5
                0x00000000080127a6                stm32f4__gpio__gpio_af_tim8
                0x00000000080127a7                stm32f4__gpio__gpio_af_tim9
                0x00000000080127a8                stm32f4__gpio__gpio_af_tim10
                0x00000000080127a9                stm32f4__gpio__gpio_af_tim11
                0x00000000080127aa                stm32f4__gpio__gpio_af_i2c1
                0x00000000080127ab                stm32f4__gpio__gpio_af_i2c2
                0x00000000080127ac                stm32f4__gpio__gpio_af_i2c3
                0x00000000080127ad                stm32f4__gpio__gpio_af_spi1
                0x00000000080127ae                stm32f4__gpio__gpio_af_spi2
                0x00000000080127af                stm32f4__gpio__gpio_af5_i2s3ext
                0x00000000080127b0                stm32f4__gpio__gpio_af_spi5
                0x00000000080127b1                stm32f4__gpio__gpio_af_spi3
                0x00000000080127b2                stm32f4__gpio__gpio_af_i2s2ext
                0x00000000080127b3                stm32f4__gpio__gpio_af_usart1
                0x00000000080127b4                stm32f4__gpio__gpio_af_usart2
                0x00000000080127b5                stm32f4__gpio__gpio_af_usart3
                0x00000000080127b6                stm32f4__gpio__gpio_af7_i2s3ext
                0x00000000080127b7                stm32f4__gpio__gpio_af_usart4
                0x00000000080127b8                stm32f4__gpio__gpio_af_usart5
                0x00000000080127b9                stm32f4__gpio__gpio_af_usart6
                0x00000000080127ba                stm32f4__gpio__gpio_af_can1
                0x00000000080127bb                stm32f4__gpio__gpio_af_can2
                0x00000000080127bc                stm32f4__gpio__gpio_af_tim12
                0x00000000080127bd                stm32f4__gpio__gpio_af_tim13
                0x00000000080127be                stm32f4__gpio__gpio_af_tim14
                0x00000000080127bf                stm32f4__gpio__gpio_af_ltdc_2
                0x00000000080127c0                stm32f4__gpio__gpio_af_otg_fs
                0x00000000080127c1                stm32f4__gpio__gpio_af_otg_hs
                0x00000000080127c2                stm32f4__gpio__gpio_af_eth
                0x00000000080127c3                stm32f4__gpio__gpio_af_fsmc
                0x00000000080127c4                stm32f4__gpio__gpio_af_otg_hs_fs
                0x00000000080127c5                stm32f4__gpio__gpio_af_sdio
                0x00000000080127c6                stm32f4__gpio__gpio_af_fmc
                0x00000000080127c7                stm32f4__gpio__gpio_af_dcmi
                0x00000000080127c8                stm32f4__gpio__gpio_af_ltdc
                0x00000000080127c9                stm32f4__gpio__gpio_af_eventout
 *fill*         0x00000000080127ca        0x2 
 .rodata        0x00000000080127cc      0x318 C:\Users\Milie\Desktop\EIDD\3A\TempsReelADA\base\game_support\stm32f4\obj\stm32f4-i2c.o
                0x0000000008012808                stm32f4__i2c__i2c_status_flagS
                0x0000000008012920                stm32f4__i2c__i2c_status_flagN
                0x000000000801294c                stm32f4__i2c__i2c_timeoutE
                0x0000000008012964                stm32f4__i2c__R8s
                0x0000000008012968                stm32f4__i2c__i2c_device_modeS
                0x0000000008012990                stm32f4__i2c__i2c_device_modeN
                0x0000000008012994                stm32f4__i2c__i2c_device_modeA
                0x0000000008012998                stm32f4__i2c__i2c_duty_cycleS
                0x00000000080129b4                stm32f4__i2c__i2c_duty_cycleN
                0x00000000080129b8                stm32f4__i2c__i2c_duty_cycleA
                0x00000000080129bc                stm32f4__i2c__i2c_acknowledgementS
                0x00000000080129d4                stm32f4__i2c__i2c_acknowledgementN
                0x00000000080129d8                stm32f4__i2c__i2c_acknowledgementA
                0x00000000080129dc                stm32f4__i2c__i2c_directionS
                0x00000000080129f0                stm32f4__i2c__i2c_directionN
                0x00000000080129f4                stm32f4__i2c__i2c_acknowledge_addressS
                0x0000000008012a28                stm32f4__i2c__i2c_acknowledge_addressN
                0x0000000008012a2c                stm32f4__i2c__i2c_acknowledge_addressA
                0x0000000008012a30                stm32f4__i2c__i2c_stateS
                0x0000000008012a40                stm32f4__i2c__i2c_stateN
                0x0000000008012a44                stm32f4__i2c__i2c_nack_positionS
                0x0000000008012a50                stm32f4__i2c__i2c_nack_positionN
                0x0000000008012a54                stm32f4__i2c__i2c_interruptS
                0x0000000008012a84                stm32f4__i2c__i2c_interruptN
                0x0000000008012a88                stm32f4__i2c__i2c_interruptA
 .rodata        0x0000000008012ae4       0xe8 C:\Users\Milie\Desktop\EIDD\3A\TempsReelADA\base\game_support\stm32f4\obj\stm32f4-spi.o
                0x0000000008012af4                stm32f4__spi__spi_data_directionS
                0x0000000008012b28                stm32f4__spi__spi_data_directionN
                0x0000000008012b30                stm32f4__spi__spi_data_sizeS
                0x0000000008012b40                stm32f4__spi__spi_data_sizeN
                0x0000000008012b44                stm32f4__spi__spi_modeS
                0x0000000008012b50                stm32f4__spi__spi_modeN
                0x0000000008012b54                stm32f4__spi__spi_clock_polarityS
                0x0000000008012b5c                stm32f4__spi__spi_clock_polarityN
                0x0000000008012b60                stm32f4__spi__spi_clock_phaseS
                0x0000000008012b6c                stm32f4__spi__spi_clock_phaseN
                0x0000000008012b70                stm32f4__spi__spi_slave_managementS
                0x0000000008012b78                stm32f4__spi__spi_slave_managementN
                0x0000000008012b7c                stm32f4__spi__spi_baud_rate_prescalerS
                0x0000000008012bac                stm32f4__spi__spi_baud_rate_prescalerN
                0x0000000008012bb8                stm32f4__spi__spi_first_bitS
                0x0000000008012bc0                stm32f4__spi__spi_first_bitN
                0x0000000008012bc4                stm32f4__spi__baud_rate_value
 .rodata        0x0000000008012bcc      0x9f4 C:\Users\Milie\Desktop\EIDD\3A\TempsReelADA\base\game_support\stm32f4\obj\stm32f4-timers.o
                0x0000000008012c38                stm32f4__timers__timer_one_pulse_modeS
                0x0000000008012c48                stm32f4__timers__timer_one_pulse_modeN
                0x0000000008012c4c                stm32f4__timers__timer_interruptS
                0x0000000008012cf0                stm32f4__timers__timer_interruptN
                0x0000000008012d04                stm32f4__timers__timer_interruptA
                0x0000000008012d0c                stm32f4__timers__timer_event_sourceS
                0x0000000008012d98                stm32f4__timers__timer_event_sourceN
                0x0000000008012dac                stm32f4__timers__timer_event_sourceA
                0x0000000008012db4                stm32f4__timers__timer_status_flagS
                0x0000000008012eac                stm32f4__timers__timer_status_flagN
                0x0000000008012ec8                stm32f4__timers__timer_status_flagA
                0x0000000008012ee0                stm32f4__timers__timer_dma_sourceS
                0x0000000008012f44                stm32f4__timers__timer_dma_sourceN
                0x0000000008012f4c                stm32f4__timers__timer_dma_sourceA
                0x0000000008012f5c                stm32f4__timers__timer_channel_access_errorE
                0x0000000008012f88                stm32f4__timers__R44s
                0x0000000008012f8c                stm32f4__timers__timer_capture_compare_stateS
                0x0000000008012f9c                stm32f4__timers__timer_capture_compare_stateN
                0x0000000008012fa0                stm32f4__timers__timer_capture_compare_modesS
                0x0000000008012fc0                stm32f4__timers__timer_capture_compare_modesN
                0x0000000008012fc8                stm32f4__timers__timer_trigger_input_sourceS
                0x0000000008013064                stm32f4__timers__timer_trigger_input_sourceN
                0x0000000008013078                stm32f4__timers__timer_slave_modeS
                0x00000000080130c8                stm32f4__timers__timer_slave_modeN
                0x00000000080130d4                stm32f4__timers__timer_channelS
                0x00000000080130f8                stm32f4__timers__timer_channelN
                0x0000000008013100                stm32f4__timers__timer_clock_divisorS
                0x000000000801310c                stm32f4__timers__timer_clock_divisorN
                0x0000000008013110                stm32f4__timers__timer_counter_alignment_modeS
                0x0000000008013144                stm32f4__timers__timer_counter_alignment_modeN
                0x000000000801314c                stm32f4__timers__timer_counter_alignment_modeA
                0x0000000008013154                stm32f4__timers__timer_trigger_output_sourceS
                0x0000000008013180                stm32f4__timers__timer_trigger_output_sourceN
                0x000000000801318c                stm32f4__timers__timer_external_trigger_polarityS
                0x00000000080131a0                stm32f4__timers__timer_external_trigger_polarityN
                0x00000000080131a4                stm32f4__timers__timer_external_trigger_prescalerS
                0x00000000080131b4                stm32f4__timers__timer_external_trigger_prescalerN
                0x00000000080131bc                stm32f4__timers__timer_input_capture_prescalerS
                0x00000000080131cc                stm32f4__timers__timer_input_capture_prescalerN
                0x00000000080131d4                stm32f4__timers__timer_output_compare_and_pwm_modeS
                0x0000000008013210                stm32f4__timers__timer_output_compare_and_pwm_modeN
                0x000000000801321c                stm32f4__timers__timer_break_polarityS
                0x0000000008013224                stm32f4__timers__timer_break_polarityN
                0x0000000008013228                stm32f4__timers__timer_lock_levelS
                0x0000000008013240                stm32f4__timers__timer_lock_levelN
                0x0000000008013248                stm32f4__timers__timer_dma_burst_lengthS
                0x0000000008013398                stm32f4__timers__timer_dma_burst_lengthN
                0x00000000080133c0                stm32f4__timers__timer_dma_base_addressS
                0x00000000080134bc                stm32f4__timers__timer_dma_base_addressN
                0x00000000080134e8                stm32f4__timers__timer_2_remapping_optionsS
                0x0000000008013520                stm32f4__timers__timer_2_remapping_optionsN
                0x0000000008013528                stm32f4__timers__timer_5_remapping_optionsS
                0x000000000801354c                stm32f4__timers__timer_5_remapping_optionsN
                0x0000000008013554                stm32f4__timers__timer_11_remapping_optionsS
                0x0000000008013568                stm32f4__timers__timer_11_remapping_optionsN
                0x000000000801356c                stm32f4__timers__timer_11_remapping_optionsA
                0x0000000008013570                stm32f4__timers__timer_prescaler_reload_modeS
                0x0000000008013580                stm32f4__timers__timer_prescaler_reload_modeN
                0x0000000008013584                stm32f4__timers__timer_update_sourceS
                0x0000000008013594                stm32f4__timers__timer_update_sourceN
                0x0000000008013598                stm32f4__timers__timer_output_compare_polarityS
                0x00000000080135a0                stm32f4__timers__timer_output_compare_polarityN
                0x00000000080135a4                stm32f4__timers__timer_input_capture_polarityS
                0x00000000080135bc                stm32f4__timers__timer_input_capture_polarityN
 .rodata        0x00000000080135c0      0x2d4 C:\Users\Milie\Desktop\EIDD\3A\TempsReelADA\base\game_support\stm32f4\obj\stm32f4-usarts.o
                0x00000000080135d8                stm32f4__usarts__usart_dr_mask
                0x00000000080135dc                stm32f4__usarts__stop_bitsS
                0x00000000080135f0                stm32f4__usarts__stop_bitsN
                0x00000000080135f4                stm32f4__usarts__stop_bitsA
                0x00000000080135f8                stm32f4__usarts__word_lengthsS
                0x0000000008013614                stm32f4__usarts__word_lengthsN
                0x0000000008013618                stm32f4__usarts__word_lengthsA
                0x000000000801361c                stm32f4__usarts__paritiesS
                0x000000000801363c                stm32f4__usarts__paritiesN
                0x0000000008013640                stm32f4__usarts__paritiesA
                0x0000000008013648                stm32f4__usarts__uart_modesS
                0x0000000008013660                stm32f4__usarts__uart_modesN
                0x0000000008013664                stm32f4__usarts__uart_modesA
                0x000000000801366c                stm32f4__usarts__flow_controlS
                0x00000000080136b0                stm32f4__usarts__flow_controlN
                0x00000000080136b8                stm32f4__usarts__flow_controlA
                0x00000000080136c0                stm32f4__usarts__usart_interruptS
                0x0000000008013750                stm32f4__usarts__usart_interruptN
                0x0000000008013764                stm32f4__usarts__usart_status_flagS
                0x000000000801386c                stm32f4__usarts__usart_status_flagN
                0x0000000008013884                stm32f4__usarts__interrupt_enablers
 .rodata        0x0000000008013894       0xd0 C:\Users\Milie\Desktop\EIDD\3A\TempsReelADA\base\game_support\stm32f4\obj\stm32f429_discovery.o
                0x00000000080138b4                stm32f429_discovery__green
                0x00000000080138b6                stm32f429_discovery(long double,...)(double)
                0x00000000080138b8                stm32f429_discovery__led3
                0x00000000080138bc                stm32f429_discovery__led4
                0x00000000080138c0                stm32f429_discovery__gpio_a
                0x00000000080138c4                stm32f429_discovery__gpio_b
                0x00000000080138c8                stm32f429_discovery__gpio_c
                0x00000000080138cc                stm32f429_discovery__gpio_d
                0x00000000080138d0                stm32f429_discovery__gpio_e
                0x00000000080138d4                stm32f429_discovery__gpio_f
                0x00000000080138d8                stm32f429_discovery__gpio_g
                0x00000000080138dc                stm32f429_discovery__gpio_h
                0x00000000080138e0                stm32f429_discovery__gpio_i
                0x00000000080138e4                stm32f429_discovery__gpio_j
                0x00000000080138e8                stm32f429_discovery__gpio_k
                0x00000000080138ec                stm32f429_discovery__usart_1
                0x00000000080138f0                stm32f429_discovery__usart_2
                0x00000000080138f4                stm32f429_discovery__usart_3
                0x00000000080138f8                stm32f429_discovery__usart_6
                0x00000000080138fc                stm32f429_discovery__dma_1
                0x0000000008013900                stm32f429_discovery__dma_2
                0x0000000008013904                stm32f429_discovery__i2c_1
                0x0000000008013908                stm32f429_discovery__i2c_2
                0x000000000801390c                stm32f429_discovery__i2c_3
                0x0000000008013910                stm32f429_discovery__spi_1
                0x0000000008013914                stm32f429_discovery__spi_2
                0x0000000008013918                stm32f429_discovery__spi_3
                0x000000000801391c                stm32f429_discovery__spi_4
                0x0000000008013920                stm32f429_discovery__spi_5
                0x0000000008013924                stm32f429_discovery__spi_6
                0x0000000008013928                stm32f429_discovery__timer_1
                0x000000000801392c                stm32f429_discovery__timer_2
                0x0000000008013930                stm32f429_discovery__timer_3
                0x0000000008013934                stm32f429_discovery__timer_4
                0x0000000008013938                stm32f429_discovery__timer_5
                0x000000000801393c                stm32f429_discovery__timer_6
                0x0000000008013940                stm32f429_discovery__timer_7
                0x0000000008013944                stm32f429_discovery__timer_8
                0x0000000008013948                stm32f429_discovery__timer_9
                0x000000000801394c                stm32f429_discovery__timer_10
                0x0000000008013950                stm32f429_discovery__timer_11
                0x0000000008013954                stm32f429_discovery__timer_12
                0x0000000008013958                stm32f429_discovery__timer_13
                0x000000000801395c                stm32f429_discovery__timer_14
                0x0000000008013960                stm32f429_discovery__all_leds
 .rodata        0x0000000008013964       0x70 C:\Users\Milie\Desktop\EIDD\3A\TempsReelADA\base\game_support\stm32f4\obj\stm32f4-sdram.o
 .rodata        0x00000000080139d4       0xfc C:\Users\Milie\Desktop\EIDD\3A\TempsReelADA\base\game_support\stm32f4\obj\stm32f4-lcd.o
                0x0000000008013a54                stm32f4__lcd__black
                0x0000000008013a56                stm32f4__lcd__white
                0x0000000008013a58                stm32f4__lcd(long double,...)(double)
                0x0000000008013a5a                stm32f4__lcd__green
                0x0000000008013a5c                stm32f4__lcd__blue
                0x0000000008013a5e                stm32f4__lcd__gray
                0x0000000008013a60                stm32f4__lcd__light_gray
                0x0000000008013a62                stm32f4__lcd__sky_blue
                0x0000000008013a64                stm32f4__lcd__yellow
                0x0000000008013a66                stm32f4__lcd__orange
                0x0000000008013a68                stm32f4__lcd__pink
                0x0000000008013a6a                stm32f4__lcd__violet
                0x0000000008013a6c                stm32f4__lcd__ncs_gpio
                0x0000000008013a70                stm32f4__lcd__wrx_gpio
                0x0000000008013a74                stm32f4__lcd__ncs_pin
                0x0000000008013a76                stm32f4__lcd__wrx_pin
                0x0000000008013a78                stm32f4__lcd__sck_gpio
                0x0000000008013a7c                stm32f4__lcd__miso_gpio
                0x0000000008013a80                stm32f4__lcd__mosi_gpio
                0x0000000008013a84                stm32f4__lcd__sck_pin
                0x0000000008013a86                stm32f4__lcd__miso_pin
                0x0000000008013a88                stm32f4__lcd__mosi_pin
                0x0000000008013a8c                stm32f4__lcd__sck_af
                0x0000000008013a90                stm32f4__lcd__miso_af
                0x0000000008013a94                stm32f4__lcd__mosi_af
                0x0000000008013a98                stm32f4__lcd__lcd_spi
                0x0000000008013a9c                stm32f4__lcd__lcd_layerS
                0x0000000008013aa8                stm32f4__lcd__lcd_layerN
                0x0000000008013aac                stm32f4__lcd__frame_buffer_array
                0x0000000008013ab0                stm32f4__lcd__layer_stateS
                0x0000000008013ac0                stm32f4__lcd__layer_stateN
                0x0000000008013ac4                stm32f4__lcd__ltdc
                0x0000000008013ac8                stm32f4__lcd__layer1_reg
                0x0000000008013acc                stm32f4__lcd__layer2_reg
 .rodata        0x0000000008013ad0       0x63 C:\Users\Milie\Desktop\EIDD\3A\TempsReelADA\base\game_support\stm32f4\obj\stm32f4-touch_panel.o
                0x0000000008013ae8                stm32f4__touch_panel__scl_gpio
                0x0000000008013aec                stm32f4__touch_panel__scl_pin
                0x0000000008013af0                stm32f4__touch_panel__sda_gpio
                0x0000000008013af4                stm32f4__touch_panel__sda_pin
                0x0000000008013af6                stm32f4__touch_panel__sda_af
                0x0000000008013af8                stm32f4__touch_panel__tp_i2c
                0x0000000008013afc                stm32f4__touch_panel__ioe_addr
                0x0000000008013afd                stm32f4__touch_panel__ioe_reg_sys_ctrl1
                0x0000000008013afe                stm32f4__touch_panel__ioe_reg_sys_ctrl2
                0x0000000008013aff                stm32f4__touch_panel__ioe_reg_spi_cfg
                0x0000000008013b00                stm32f4__touch_panel__ioe_reg_tp_ctrl
                0x0000000008013b01                stm32f4__touch_panel__ioe_reg_tp_cfg
                0x0000000008013b02                stm32f4__touch_panel__ioe_reg_wdm_tr_x
                0x0000000008013b03                stm32f4__touch_panel__ioe_reg_wdm_tr_y
                0x0000000008013b04                stm32f4__touch_panel__ioe_reg_wdm_bl_x
                0x0000000008013b05                stm32f4__touch_panel__ioe_reg_wdm_bl_y
                0x0000000008013b06                stm32f4__touch_panel__ioe_reg_fifo_th
                0x0000000008013b07                stm32f4__touch_panel__ioe_reg_fifo_sta
                0x0000000008013b08                stm32f4__touch_panel__ioe_reg_fifo_size
                0x0000000008013b09                stm32f4__touch_panel__ioe_reg_tp_data_x
                0x0000000008013b0a                stm32f4__touch_panel__ioe_reg_tp_data_y
                0x0000000008013b0b                stm32f4__touch_panel__ioe_reg_tp_data_z
                0x0000000008013b0c                stm32f4__touch_panel__ioe_reg_tp_data_xyz
                0x0000000008013b0d                stm32f4__touch_panel__ioe_reg_tp_fract_xyz
                0x0000000008013b0e                stm32f4__touch_panel__ioe_reg_tp_data
                0x0000000008013b0f                stm32f4__touch_panel__ioe_reg_tp_i_drive
                0x0000000008013b10                stm32f4__touch_panel__ioe_reg_tp_shield
                0x0000000008013b11                stm32f4__touch_panel__ioe_reg_gpio_set_pin
                0x0000000008013b12                stm32f4__touch_panel__ioe_reg_gpio_clr_pin
                0x0000000008013b13                stm32f4__touch_panel__ioe_reg_gpio_mp_sta
                0x0000000008013b14                stm32f4__touch_panel__ioe_reg_gpio_dir
                0x0000000008013b15                stm32f4__touch_panel__ioe_reg_gpio_ed
                0x0000000008013b16                stm32f4__touch_panel__ioe_reg_gpio_re
                0x0000000008013b17                stm32f4__touch_panel__ioe_reg_gpio_fe
                0x0000000008013b18                stm32f4__touch_panel__ioe_reg_gpio_af
                0x0000000008013b19                stm32f4__touch_panel__ioe_adc_fct
                0x0000000008013b1a                stm32f4__touch_panel__ioe_tp_fct
                0x0000000008013b1b                stm32f4__touch_panel__ioe_io_fct
                0x0000000008013b1c                stm32f4__touch_panel__ioe_reg_adc_int_en
                0x0000000008013b1d                stm32f4__touch_panel__ioe_reg_adc_int_sta
                0x0000000008013b1e                stm32f4__touch_panel__ioe_reg_adc_ctrl1
                0x0000000008013b1f                stm32f4__touch_panel__ioe_reg_adc_ctrl2
                0x0000000008013b20                stm32f4__touch_panel__ioe_reg_adc_capt
                0x0000000008013b21                stm32f4__touch_panel__ioe_reg_adc_data_ch0
                0x0000000008013b22                stm32f4__touch_panel__ioe_reg_adc_data_ch1
                0x0000000008013b23                stm32f4__touch_panel__ioe_reg_adc_data_ch2
                0x0000000008013b24                stm32f4__touch_panel__ioe_reg_adc_data_ch3
                0x0000000008013b25                stm32f4__touch_panel__ioe_reg_adc_data_ch4
                0x0000000008013b26                stm32f4__touch_panel__ioe_reg_adc_data_ch5
                0x0000000008013b27                stm32f4__touch_panel__ioe_reg_adc_data_ch6
                0x0000000008013b28                stm32f4__touch_panel__ioe_reg_adc_data_ch7
                0x0000000008013b29                stm32f4__touch_panel__ioe_reg_int_ctrl
                0x0000000008013b2a                stm32f4__touch_panel__ioe_reg_int_en
                0x0000000008013b2b                stm32f4__touch_panel__ioe_reg_int_sta
                0x0000000008013b2c                stm32f4__touch_panel__ioe_reg_gpio_int_en
                0x0000000008013b2d                stm32f4__touch_panel__ioe_reg_gpio_int_sta
                0x0000000008013b2e                stm32f4__touch_panel__touch_yd
                0x0000000008013b2f                stm32f4__touch_panel__touch_xd
                0x0000000008013b30                stm32f4__touch_panel__touch_yu
                0x0000000008013b31                stm32f4__touch_panel__touch_xu
                0x0000000008013b32                stm32f4__touch_panel__touch_io_all
 *fill*         0x0000000008013b33        0x1 
 .rodata        0x0000000008013b34       0x60 C:\Users\Milie\Desktop\EIDD\3A\TempsReelADA\base\game_support\stm32f4\obj\screen_interface.o
                0x0000000008013b64                screen_interface__black
                0x0000000008013b68                screen_interface__white
                0x0000000008013b6c                screen_interface(long double,...)(double)
                0x0000000008013b70                screen_interface__green
                0x0000000008013b74                screen_interface__blue
                0x0000000008013b78                screen_interface__gray
                0x0000000008013b7c                screen_interface__light_gray
                0x0000000008013b80                screen_interface__sky_blue
                0x0000000008013b84                screen_interface__yellow
                0x0000000008013b88                screen_interface__orange
                0x0000000008013b8c                screen_interface__pink
                0x0000000008013b90                screen_interface__violet
 .rodata        0x0000000008013b94     0x1e14 C:\Users\Milie\Desktop\EIDD\3A\TempsReelADA\base\game_support\stm32f4\obj\fonts.o
                0x0000000008013bb8                fonts__bmp_fontS
                0x0000000008013bd4                fonts__bmp_fontN
 .rodata        0x00000000080159a8      0x130 C:\Users\Milie\Desktop\EIDD\3A\TempsReelADA\base\game_support\obj\display-basic.o
                0x0000000008015a34                display__basic__graphical_context_not_initializedE
                0x0000000008015a64                display__basic__R2s
                0x0000000008015a68                display__basic__too_many_windowsE
                0x0000000008015a88                display__basic__R4s
                0x0000000008015a8c                display__basic__too_many_canvasE
                0x0000000008015aac                display__basic__R6s
                0x0000000008015ab0                display__basic__shape_kindS
                0x0000000008015ad0                display__basic__shape_kindN
 .rodata        0x0000000008015ad8        0xd C:\gnat\2018-arm-elf\arm-eabi\lib\gnat\ravenscar-sfp-stm32f429disco\adalib\libgnarl.a(a-reatim.o)
 *fill*         0x0000000008015ae5        0x3 
 .rodata.ada__real_time__duration_units
                0x0000000008015ae8        0x4 C:\gnat\2018-arm-elf\arm-eabi\lib\gnat\ravenscar-sfp-stm32f429disco\adalib\libgnarl.a(a-reatim.o)
                0x0000000008015ae8                ada__real_time__duration_units
 *fill*         0x0000000008015aec        0x4 
 .rodata.ada__real_time__tick
                0x0000000008015af0        0x8 C:\gnat\2018-arm-elf\arm-eabi\lib\gnat\ravenscar-sfp-stm32f429disco\adalib\libgnarl.a(a-reatim.o)
                0x0000000008015af0                ada__real_time__tick
 .rodata.ada__real_time__time_first
                0x0000000008015af8        0x8 C:\gnat\2018-arm-elf\arm-eabi\lib\gnat\ravenscar-sfp-stm32f429disco\adalib\libgnarl.a(a-reatim.o)
                0x0000000008015af8                ada__real_time__time_first
 .rodata.ada__real_time__time_last
                0x0000000008015b00        0x8 C:\gnat\2018-arm-elf\arm-eabi\lib\gnat\ravenscar-sfp-stm32f429disco\adalib\libgnarl.a(a-reatim.o)
                0x0000000008015b00                ada__real_time__time_last
 .rodata.ada__real_time__time_span_first
                0x0000000008015b08        0x8 C:\gnat\2018-arm-elf\arm-eabi\lib\gnat\ravenscar-sfp-stm32f429disco\adalib\libgnarl.a(a-reatim.o)
                0x0000000008015b08                ada__real_time__time_span_first
 .rodata.ada__real_time__time_span_last
                0x0000000008015b10        0x8 C:\gnat\2018-arm-elf\arm-eabi\lib\gnat\ravenscar-sfp-stm32f429disco\adalib\libgnarl.a(a-reatim.o)
                0x0000000008015b10                ada__real_time__time_span_last
 .rodata.ada__real_time__time_span_unit
                0x0000000008015b18        0x8 C:\gnat\2018-arm-elf\arm-eabi\lib\gnat\ravenscar-sfp-stm32f429disco\adalib\libgnarl.a(a-reatim.o)
                0x0000000008015b18                ada__real_time__time_span_unit
 .rodata.ada__real_time__time_span_zero
                0x0000000008015b20        0x8 C:\gnat\2018-arm-elf\arm-eabi\lib\gnat\ravenscar-sfp-stm32f429disco\adalib\libgnarl.a(a-reatim.o)
                0x0000000008015b20                ada__real_time__time_span_zero
 .rodata        0x0000000008015b28        0xd C:\gnat\2018-arm-elf\arm-eabi\lib\gnat\ravenscar-sfp-stm32f429disco\adalib\libgnarl.a(a-retide.o)
 *fill*         0x0000000008015b35        0x3 
 .rodata.system__bb__board_support__alarm_interrupt_id
                0x0000000008015b38        0x4 C:\gnat\2018-arm-elf\arm-eabi\lib\gnat\ravenscar-sfp-stm32f429disco\adalib\libgnarl.a(s-bbbosu.o)
                0x0000000008015b38                system__bb__board_support__alarm_interrupt_id
 .rodata.system__bb__board_support__interrupt_request_vector
                0x0000000008015b3c        0x1 C:\gnat\2018-arm-elf\arm-eabi\lib\gnat\ravenscar-sfp-stm32f429disco\adalib\libgnarl.a(s-bbbosu.o)
                0x0000000008015b3c                system__bb__board_support__interrupt_request_vector
 *fill*         0x0000000008015b3d        0x3 
 .rodata.system__bb__board_support__nvic_iser0
                0x0000000008015b40        0x4 C:\gnat\2018-arm-elf\arm-eabi\lib\gnat\ravenscar-sfp-stm32f429disco\adalib\libgnarl.a(s-bbbosu.o)
                0x0000000008015b40                system__bb__board_support__nvic_iser0
 .rodata.system__bb__board_support__sys_tick_vector
                0x0000000008015b44        0x1 C:\gnat\2018-arm-elf\arm-eabi\lib\gnat\ravenscar-sfp-stm32f429disco\adalib\libgnarl.a(s-bbbosu.o)
                0x0000000008015b44                system__bb__board_support__sys_tick_vector
 *fill*         0x0000000008015b45        0x3 
 .rodata.system__bb__board_support__tick_period
                0x0000000008015b48        0x4 C:\gnat\2018-arm-elf\arm-eabi\lib\gnat\ravenscar-sfp-stm32f429disco\adalib\libgnarl.a(s-bbbosu.o)
                0x0000000008015b48                system__bb__board_support__tick_period
 .rodata.system__bb__cpu_primitives__bus_fault_vector
                0x0000000008015b4c        0x1 C:\gnat\2018-arm-elf\arm-eabi\lib\gnat\ravenscar-sfp-stm32f429disco\adalib\libgnarl.a(s-bbcppr.o)
                0x0000000008015b4c                system__bb__cpu_primitives__bus_fault_vector
 *fill*         0x0000000008015b4d        0x3 
 .rodata.system__bb__cpu_primitives__gnat_error_handler.str1.4
                0x0000000008015b50      0x16c C:\gnat\2018-arm-elf\arm-eabi\lib\gnat\ravenscar-sfp-stm32f429disco\adalib\libgnarl.a(s-bbcppr.o)
 .rodata.system__bb__cpu_primitives__hard_fault_vector
                0x0000000008015cbc        0x1 C:\gnat\2018-arm-elf\arm-eabi\lib\gnat\ravenscar-sfp-stm32f429disco\adalib\libgnarl.a(s-bbcppr.o)
                0x0000000008015cbc                system__bb__cpu_primitives__hard_fault_vector
 .rodata.system__bb__cpu_primitives__has_os_extensions
                0x0000000008015cbd        0x1 C:\gnat\2018-arm-elf\arm-eabi\lib\gnat\ravenscar-sfp-stm32f429disco\adalib\libgnarl.a(s-bbcppr.o)
                0x0000000008015cbd                system__bb__cpu_primitives__has_os_extensions
 .rodata.system__bb__cpu_primitives__has_vtor
                0x0000000008015cbe        0x1 C:\gnat\2018-arm-elf\arm-eabi\lib\gnat\ravenscar-sfp-stm32f429disco\adalib\libgnarl.a(s-bbcppr.o)
                0x0000000008015cbe                system__bb__cpu_primitives__has_vtor
 .rodata.system__bb__cpu_primitives__interrupt_request_vector
                0x0000000008015cbf        0x1 C:\gnat\2018-arm-elf\arm-eabi\lib\gnat\ravenscar-sfp-stm32f429disco\adalib\libgnarl.a(s-bbcppr.o)
                0x0000000008015cbf                system__bb__cpu_primitives__interrupt_request_vector
 .rodata.system__bb__cpu_primitives__is_armv6m
                0x0000000008015cc0        0x1 C:\gnat\2018-arm-elf\arm-eabi\lib\gnat\ravenscar-sfp-stm32f429disco\adalib\libgnarl.a(s-bbcppr.o)
                0x0000000008015cc0                system__bb__cpu_primitives__is_armv6m
 *fill*         0x0000000008015cc1        0x3 
 .rodata.system__bb__cpu_primitives__nl
                0x0000000008015cc4        0x2 C:\gnat\2018-arm-elf\arm-eabi\lib\gnat\ravenscar-sfp-stm32f429disco\adalib\libgnarl.a(s-bbcppr.o)
                0x0000000008015cc4                system__bb__cpu_primitives__nl
 .rodata.system__bb__cpu_primitives__nmi_vector
                0x0000000008015cc6        0x1 C:\gnat\2018-arm-elf\arm-eabi\lib\gnat\ravenscar-sfp-stm32f429disco\adalib\libgnarl.a(s-bbcppr.o)
                0x0000000008015cc6                system__bb__cpu_primitives__nmi_vector
 .rodata.system__bb__cpu_primitives__pend_sv_vector
                0x0000000008015cc7        0x1 C:\gnat\2018-arm-elf\arm-eabi\lib\gnat\ravenscar-sfp-stm32f429disco\adalib\libgnarl.a(s-bbcppr.o)
                0x0000000008015cc7                system__bb__cpu_primitives__pend_sv_vector
 .rodata.system__bb__cpu_primitives__reset_vector
                0x0000000008015cc8        0x1 C:\gnat\2018-arm-elf\arm-eabi\lib\gnat\ravenscar-sfp-stm32f429disco\adalib\libgnarl.a(s-bbcppr.o)
                0x0000000008015cc8                system__bb__cpu_primitives__reset_vector
 .rodata.system__bb__cpu_primitives__sp_process
                0x0000000008015cc9        0x1 C:\gnat\2018-arm-elf\arm-eabi\lib\gnat\ravenscar-sfp-stm32f429disco\adalib\libgnarl.a(s-bbcppr.o)
                0x0000000008015cc9                system__bb__cpu_primitives__sp_process
 .rodata.system__bb__cpu_primitives__sv_call_vector
                0x0000000008015cca        0x1 C:\gnat\2018-arm-elf\arm-eabi\lib\gnat\ravenscar-sfp-stm32f429disco\adalib\libgnarl.a(s-bbcppr.o)
                0x0000000008015cca                system__bb__cpu_primitives__sv_call_vector
 .rodata.system__bb__cpu_primitives__sys_tick_vector
                0x0000000008015ccb        0x1 C:\gnat\2018-arm-elf\arm-eabi\lib\gnat\ravenscar-sfp-stm32f429disco\adalib\libgnarl.a(s-bbcppr.o)
                0x0000000008015ccb                system__bb__cpu_primitives__sys_tick_vector
 .rodata.system__bb__cpu_primitives__usage_fault_vector
                0x0000000008015ccc        0x1 C:\gnat\2018-arm-elf\arm-eabi\lib\gnat\ravenscar-sfp-stm32f429disco\adalib\libgnarl.a(s-bbcppr.o)
                0x0000000008015ccc                system__bb__cpu_primitives__usage_fault_vector
 *fill*         0x0000000008015ccd        0x3 
 .rodata.system__bb__interrupts__no_interrupt
                0x0000000008015cd0        0x4 C:\gnat\2018-arm-elf\arm-eabi\lib\gnat\ravenscar-sfp-stm32f429disco\adalib\libgnarl.a(s-bbinte.o)
                0x0000000008015cd0                system__bb__interrupts__no_interrupt
 .rodata.system__bb__time__initial_composite_execution_time
                0x0000000008015cd4        0x8 C:\gnat\2018-arm-elf\arm-eabi\lib\gnat\ravenscar-sfp-stm32f429disco\adalib\libgnarl.a(s-bbtime.o)
                0x0000000008015cd4                system__bb__time__initial_composite_execution_time
 .rodata.system__bb__time__periods_in_epoch
                0x0000000008015cdc        0x4 C:\gnat\2018-arm-elf\arm-eabi\lib\gnat\ravenscar-sfp-stm32f429disco\adalib\libgnarl.a(s-bbtime.o)
                0x0000000008015cdc                system__bb__time__periods_in_epoch
 .rodata.system__bb__time__update_in_progress
                0x0000000008015ce0        0x4 C:\gnat\2018-arm-elf\arm-eabi\lib\gnat\ravenscar-sfp-stm32f429disco\adalib\libgnarl.a(s-bbtime.o)
                0x0000000008015ce0                system__bb__time__update_in_progress
 .rodata.system__tasking__idle_priority
                0x0000000008015ce4        0x4 C:\gnat\2018-arm-elf\arm-eabi\lib\gnat\ravenscar-sfp-stm32f429disco\adalib\libgnarl.a(s-taskin.o)
                0x0000000008015ce4                system__tasking__idle_priority
 .rodata.system__tasking__initialize.str1.4
                0x0000000008015ce8       0x3a C:\gnat\2018-arm-elf\arm-eabi\lib\gnat\ravenscar-sfp-stm32f429disco\adalib\libgnarl.a(s-taskin.o)
 *fill*         0x0000000008015d22        0x2 
 .rodata.system__tasking__library_task_level
                0x0000000008015d24        0x4 C:\gnat\2018-arm-elf\arm-eabi\lib\gnat\ravenscar-sfp-stm32f429disco\adalib\libgnarl.a(s-taskin.o)
                0x0000000008015d24                system__tasking__library_task_level
 .rodata.system__tasking__null_task
                0x0000000008015d28        0x4 C:\gnat\2018-arm-elf\arm-eabi\lib\gnat\ravenscar-sfp-stm32f429disco\adalib\libgnarl.a(s-taskin.o)
                0x0000000008015d28                system__tasking__null_task
 .rodata.system__tasking__task_statesN
                0x0000000008015d2c       0x22 C:\gnat\2018-arm-elf\arm-eabi\lib\gnat\ravenscar-sfp-stm32f429disco\adalib\libgnarl.a(s-taskin.o)
                0x0000000008015d2c                system__tasking__task_statesN
 *fill*         0x0000000008015d4e        0x2 
 .rodata.system__tasking__task_statesS
                0x0000000008015d50      0x130 C:\gnat\2018-arm-elf\arm-eabi\lib\gnat\ravenscar-sfp-stm32f429disco\adalib\libgnarl.a(s-taskin.o)
                0x0000000008015d50                system__tasking__task_statesS
 .rodata.system__bb__threads__null_thread_id
                0x0000000008015e80        0x4 C:\gnat\2018-arm-elf\arm-eabi\lib\gnat\ravenscar-sfp-stm32f429disco\adalib\libgnarl.a(s-bbthre.o)
                0x0000000008015e80                system__bb__threads__null_thread_id
 .rodata.system__bb__threads__thread_statesN
                0x0000000008015e84        0x4 C:\gnat\2018-arm-elf\arm-eabi\lib\gnat\ravenscar-sfp-stm32f429disco\adalib\libgnarl.a(s-bbthre.o)
                0x0000000008015e84                system__bb__threads__thread_statesN
 .rodata.system__bb__threads__thread_statesS
                0x0000000008015e88       0x18 C:\gnat\2018-arm-elf\arm-eabi\lib\gnat\ravenscar-sfp-stm32f429disco\adalib\libgnarl.a(s-bbthre.o)
                0x0000000008015e88                system__bb__threads__thread_statesS
 .rodata.system__bb__timing_events__timing_eventB12s
                0x0000000008015ea0       0x1c C:\gnat\2018-arm-elf\arm-eabi\lib\gnat\ravenscar-sfp-stm32f429disco\adalib\libgnarl.a(s-bbtiev.o)
                0x0000000008015ea0                system__bb__timing_events__timing_eventB12s
 .rodata.system__bb__timing_events__timing_eventE8s
                0x0000000008015ebc       0x25 C:\gnat\2018-arm-elf\arm-eabi\lib\gnat\ravenscar-sfp-stm32f429disco\adalib\libgnarl.a(s-bbtiev.o)
                0x0000000008015ebc                system__bb__timing_events__timing_eventE8s
 *fill*         0x0000000008015ee1        0x3 
 .rodata.system__bb__timing_events__timing_eventP
                0x0000000008015ee4        0x4 C:\gnat\2018-arm-elf\arm-eabi\lib\gnat\ravenscar-sfp-stm32f429disco\adalib\libgnarl.a(s-bbtiev.o)
                0x0000000008015ee4                system__bb__timing_events__timing_eventP
 .rodata.system__bb__timing_events__timing_eventR10s
                0x0000000008015ee8        0x4 C:\gnat\2018-arm-elf\arm-eabi\lib\gnat\ravenscar-sfp-stm32f429disco\adalib\libgnarl.a(s-bbtiev.o)
                0x0000000008015ee8                system__bb__timing_events__timing_eventR10s
 .rodata.system__bb__timing_events__timing_eventR10s___UNC
                0x0000000008015eec        0xc C:\gnat\2018-arm-elf\arm-eabi\lib\gnat\ravenscar-sfp-stm32f429disco\adalib\libgnarl.a(s-bbtiev.o)
                0x0000000008015eec                system__bb__timing_events__timing_eventR10s___UNC
 .rodata.system__bb__timing_events__timing_eventT
                0x0000000008015ef8       0x1c C:\gnat\2018-arm-elf\arm-eabi\lib\gnat\ravenscar-sfp-stm32f429disco\adalib\libgnarl.a(s-bbtiev.o)
                0x0000000008015ef8                system__bb__timing_events__timing_eventT
 .rodata.system__bb__timing_events__timing_eventY
                0x0000000008015f14        0x4 C:\gnat\2018-arm-elf\arm-eabi\lib\gnat\ravenscar-sfp-stm32f429disco\adalib\libgnarl.a(s-bbtiev.o)
                0x0000000008015f14                system__bb__timing_events__timing_eventY
 .rodata.system__task_primitives__operations__idle_stack_size
                0x0000000008015f18        0x4 C:\gnat\2018-arm-elf\arm-eabi\lib\gnat\ravenscar-sfp-stm32f429disco\adalib\libgnarl.a(s-taprop.o)
                0x0000000008015f18                system__task_primitives__operations__idle_stack_size
 .rodata        0x0000000008015f1c       0x18 C:\gnat\2018-arm-elf\arm-eabi\lib\gnat\ravenscar-sfp-stm32f429disco\adalib\libgnat.a(a-elchha.o)
 .rodata.__gnat_last_chance_handler.str1.4
                0x0000000008015f34       0x5c C:\gnat\2018-arm-elf\arm-eabi\lib\gnat\ravenscar-sfp-stm32f429disco\adalib\libgnat.a(a-elchha.o)
                                         0x5a (size before relaxing)
 .rodata.ada__exceptions__null_id
                0x0000000008015f90        0x4 C:\gnat\2018-arm-elf\arm-eabi\lib\gnat\ravenscar-sfp-stm32f429disco\adalib\libgnat.a(a-except.o)
                0x0000000008015f90                ada__exceptions__null_id
 .rodata.ada__exceptions__empty_c_string___UNC
                0x0000000008015f94        0xc C:\gnat\2018-arm-elf\arm-eabi\lib\gnat\ravenscar-sfp-stm32f429disco\adalib\libgnat.a(a-except.o)
                0x0000000008015f94                ada__exceptions__empty_c_string___UNC
 .rodata.ada__exceptions__empty_c_string
                0x0000000008015fa0        0x4 C:\gnat\2018-arm-elf\arm-eabi\lib\gnat\ravenscar-sfp-stm32f429disco\adalib\libgnat.a(a-except.o)
                0x0000000008015fa0                ada__exceptions__empty_c_string
 .rodata.system__parameters__c_malloc_linkname
                0x0000000008015fa4        0xd C:\gnat\2018-arm-elf\arm-eabi\lib\gnat\ravenscar-sfp-stm32f429disco\adalib\libgnat.a(s-parame.o)
                0x0000000008015fa4                system__parameters__c_malloc_linkname
 *fill*         0x0000000008015fb1        0x3 
 .rodata.system__parameters__default_stack_size
                0x0000000008015fb4        0x4 C:\gnat\2018-arm-elf\arm-eabi\lib\gnat\ravenscar-sfp-stm32f429disco\adalib\libgnat.a(s-parame.o)
                0x0000000008015fb4                system__parameters__default_stack_size
 .rodata.system__parameters__garbage_collected
                0x0000000008015fb8        0x1 C:\gnat\2018-arm-elf\arm-eabi\lib\gnat\ravenscar-sfp-stm32f429disco\adalib\libgnat.a(s-parame.o)
                0x0000000008015fb8                system__parameters__garbage_collected
 *fill*         0x0000000008015fb9        0x3 
 .rodata.system__parameters__minimum_stack_size
                0x0000000008015fbc        0x4 C:\gnat\2018-arm-elf\arm-eabi\lib\gnat\ravenscar-sfp-stm32f429disco\adalib\libgnat.a(s-parame.o)
                0x0000000008015fbc                system__parameters__minimum_stack_size
 .rodata.system__parameters__no_abort
                0x0000000008015fc0        0x1 C:\gnat\2018-arm-elf\arm-eabi\lib\gnat\ravenscar-sfp-stm32f429disco\adalib\libgnat.a(s-parame.o)
                0x0000000008015fc0                system__parameters__no_abort
 *fill*         0x0000000008015fc1        0x3 
 .rodata.system__parameters__runtime_default_sec_stack_size
                0x0000000008015fc4        0x4 C:\gnat\2018-arm-elf\arm-eabi\lib\gnat\ravenscar-sfp-stm32f429disco\adalib\libgnat.a(s-parame.o)
                0x0000000008015fc4                system__parameters__runtime_default_sec_stack_size
 .rodata.system__parameters__single_lock
                0x0000000008015fc8        0x1 C:\gnat\2018-arm-elf\arm-eabi\lib\gnat\ravenscar-sfp-stm32f429disco\adalib\libgnat.a(s-parame.o)
                0x0000000008015fc8                system__parameters__single_lock
 .rodata.system__parameters__stack_grows_down
                0x0000000008015fc9        0x1 C:\gnat\2018-arm-elf\arm-eabi\lib\gnat\ravenscar-sfp-stm32f429disco\adalib\libgnat.a(s-parame.o)
                0x0000000008015fc9                system__parameters__stack_grows_down
 *fill*         0x0000000008015fca        0x2 
 .rodata.system__parameters__unspecified_size
                0x0000000008015fcc        0x4 C:\gnat\2018-arm-elf\arm-eabi\lib\gnat\ravenscar-sfp-stm32f429disco\adalib\libgnat.a(s-parame.o)
                0x0000000008015fcc                system__parameters__unspecified_size
 .rodata        0x0000000008015fd0        0xd C:\gnat\2018-arm-elf\arm-eabi\lib\gnat\ravenscar-sfp-stm32f429disco\adalib\libgnat.a(s-secsta.o)
 *fill*         0x0000000008015fdd        0x3 
 .rodata        0x0000000008015fe0        0x1 C:\gnat\2018-arm-elf\arm-eabi\lib\gnat\ravenscar-sfp-stm32f429disco\adalib\libgnat.a(setup_pll.o)
                0x0000000008015fe4                . = ALIGN (0x4)
 *fill*         0x0000000008015fe1        0x3 
                0x0000000008015fe4                __rom_end = .
                0x0000000008015fe4                __data_load = __rom_end

.rel.dyn        0x0000000008015fe4        0x0
 .rel.iplt      0x0000000008015fe4        0x0 main.o

.data           0x0000000020000000      0x170 load address 0x0000000008015fe4
                0x0000000020000000                __data_start = .
 *(.data .data.* .gnu.linkonce.d*)
 .data          0x0000000020000000        0x0 main.o
 .data          0x0000000020000000        0x2 b__main.o
                0x0000000020000000                ada_main_E
 *fill*         0x0000000020000002        0x2 
 .data          0x0000000020000004       0x44 C:\Users\Milie\Desktop\EIDD\3A\TempsReelADA\base\game_support\obj\display.o
                0x0000000020000004                display_E
                0x0000000020000008                display__transparent
                0x000000002000000c                display__black
                0x0000000020000010                display__white
                0x0000000020000014                display__blue
                0x0000000020000018                display__green
                0x000000002000001c                display(long double,...)(double)
                0x0000000020000020                display__cyan
                0x0000000020000024                display__magenta
                0x0000000020000028                display__yellow
                0x000000002000002c                display__gray
                0x0000000020000030                display__display_error
 .data          0x0000000020000048        0x0 C:\Users\Milie\Desktop\EIDD\3A\TempsReelADA\base\game_support\stm32f4\obj\stm32f4.o
 .data          0x0000000020000048        0x0 C:\Users\Milie\Desktop\EIDD\3A\TempsReelADA\base\game_support\stm32f4\obj\stm32f4-dma.o
 .data          0x0000000020000048        0x2 C:\Users\Milie\Desktop\EIDD\3A\TempsReelADA\base\game_support\stm32f4\obj\stm32f4-fmc.o
                0x0000000020000048                stm32f4__fmc_E
 .data          0x000000002000004a        0x0 C:\Users\Milie\Desktop\EIDD\3A\TempsReelADA\base\game_support\stm32f4\obj\stm32f4-rcc.o
 .data          0x000000002000004a        0x0 C:\Users\Milie\Desktop\EIDD\3A\TempsReelADA\base\game_support\stm32f4\obj\stm32f4-syscfg.o
 .data          0x000000002000004a        0x0 C:\Users\Milie\Desktop\EIDD\3A\TempsReelADA\base\game_support\stm32f4\obj\stm32f4-gpio.o
 *fill*         0x000000002000004a        0x2 
 .data          0x000000002000004c       0x1c C:\Users\Milie\Desktop\EIDD\3A\TempsReelADA\base\game_support\stm32f4\obj\stm32f4-i2c.o
                0x000000002000004c                stm32f4__i2c_E
                0x0000000020000050                stm32f4__i2c__i2c_timeout
 .data          0x0000000020000068        0x2 C:\Users\Milie\Desktop\EIDD\3A\TempsReelADA\base\game_support\stm32f4\obj\stm32f4-spi.o
                0x0000000020000068                stm32f4__spi_E
 *fill*         0x000000002000006a        0x2 
 .data          0x000000002000006c       0x18 C:\Users\Milie\Desktop\EIDD\3A\TempsReelADA\base\game_support\stm32f4\obj\stm32f4-timers.o
                0x000000002000006c                stm32f4__timers__timer_channel_access_error
 .data          0x0000000020000084        0x0 C:\Users\Milie\Desktop\EIDD\3A\TempsReelADA\base\game_support\stm32f4\obj\stm32f4-usarts.o
 .data          0x0000000020000084        0x2 C:\Users\Milie\Desktop\EIDD\3A\TempsReelADA\base\game_support\stm32f4\obj\stm32f429_discovery.o
                0x0000000020000084                stm32f429_discovery_E
 .data          0x0000000020000086        0x2 C:\Users\Milie\Desktop\EIDD\3A\TempsReelADA\base\game_support\stm32f4\obj\stm32f4-sdram.o
                0x0000000020000086                stm32f4__sdram_E
 .data          0x0000000020000088        0x3 C:\Users\Milie\Desktop\EIDD\3A\TempsReelADA\base\game_support\stm32f4\obj\stm32f4-lcd.o
                0x0000000020000088                stm32f4__lcd_E
                0x000000002000008a                stm32f4__lcd__current_frame_buffer_index
 *fill*         0x000000002000008b        0x1 
 .data          0x000000002000008c        0x3 C:\Users\Milie\Desktop\EIDD\3A\TempsReelADA\base\game_support\stm32f4\obj\stm32f4-touch_panel.o
                0x000000002000008c                stm32f4__touch_panel_E
                0x000000002000008e                stm32f4__touch_panel__scl_af
 *fill*         0x000000002000008f        0x1 
 .data          0x0000000020000090        0x2 C:\Users\Milie\Desktop\EIDD\3A\TempsReelADA\base\game_support\stm32f4\obj\screen_interface.o
                0x0000000020000090                screen_interface_E
 .data          0x0000000020000092        0x2 C:\Users\Milie\Desktop\EIDD\3A\TempsReelADA\base\game_support\stm32f4\obj\fonts.o
                0x0000000020000092                fonts_E
 .data          0x0000000020000094       0x4d C:\Users\Milie\Desktop\EIDD\3A\TempsReelADA\base\game_support\obj\display-basic.o
                0x0000000020000094                display__basic_E
                0x0000000020000098                display__basic__graphical_context_not_initialized
                0x00000000200000b0                display__basic__too_many_windows
                0x00000000200000c8                display__basic__too_many_canvas
                0x00000000200000e0                display__basic__window_created
 .data          0x00000000200000e1        0x0 C:\gnat\2018-arm-elf\arm-eabi\lib\gnat\ravenscar-sfp-stm32f429disco\adalib\libgnarl.a(a-reatim.o)
 *fill*         0x00000000200000e1        0x1 
 .data.ada__real_time_E
                0x00000000200000e2        0x2 C:\gnat\2018-arm-elf\arm-eabi\lib\gnat\ravenscar-sfp-stm32f429disco\adalib\libgnarl.a(a-reatim.o)
                0x00000000200000e2                ada__real_time_E
 .data          0x00000000200000e4        0x0 C:\gnat\2018-arm-elf\arm-eabi\lib\gnat\ravenscar-sfp-stm32f429disco\adalib\libgnarl.a(a-retide.o)
 .data.ada__real_time__delays_E
                0x00000000200000e4        0x2 C:\gnat\2018-arm-elf\arm-eabi\lib\gnat\ravenscar-sfp-stm32f429disco\adalib\libgnarl.a(a-retide.o)
                0x00000000200000e4                ada__real_time__delays_E
 .data          0x00000000200000e6        0x0 C:\gnat\2018-arm-elf\arm-eabi\lib\gnat\ravenscar-sfp-stm32f429disco\adalib\libgnarl.a(s-bbbosu.o)
 .data          0x00000000200000e6        0x0 C:\gnat\2018-arm-elf\arm-eabi\lib\gnat\ravenscar-sfp-stm32f429disco\adalib\libgnarl.a(s-bbcppr.o)
 .data          0x00000000200000e6        0x0 C:\gnat\2018-arm-elf\arm-eabi\lib\gnat\ravenscar-sfp-stm32f429disco\adalib\libgnarl.a(s-bbinte.o)
 *fill*         0x00000000200000e6        0x2 
 .data.system__bb__interrupts__interrupt_being_handled
                0x00000000200000e8        0x4 C:\gnat\2018-arm-elf\arm-eabi\lib\gnat\ravenscar-sfp-stm32f429disco\adalib\libgnarl.a(s-bbinte.o)
                0x00000000200000e8                system__bb__interrupts__interrupt_being_handled
 .data          0x00000000200000ec        0x0 C:\gnat\2018-arm-elf\arm-eabi\lib\gnat\ravenscar-sfp-stm32f429disco\adalib\libgnarl.a(s-bbthqu.o)
 .data.__gnat_running_thread_table
                0x00000000200000ec        0x4 C:\gnat\2018-arm-elf\arm-eabi\lib\gnat\ravenscar-sfp-stm32f429disco\adalib\libgnarl.a(s-bbthqu.o)
                0x00000000200000ec                __gnat_running_thread_table
 .data.first_thread_table
                0x00000000200000f0        0x4 C:\gnat\2018-arm-elf\arm-eabi\lib\gnat\ravenscar-sfp-stm32f429disco\adalib\libgnarl.a(s-bbthqu.o)
                0x00000000200000f0                first_thread_table
 .data.system__bb__threads__queues__alarms_table
                0x00000000200000f4        0x4 C:\gnat\2018-arm-elf\arm-eabi\lib\gnat\ravenscar-sfp-stm32f429disco\adalib\libgnarl.a(s-bbthqu.o)
                0x00000000200000f4                system__bb__threads__queues__alarms_table
 .data.system__bb__threads__queues__global_list
                0x00000000200000f8        0x4 C:\gnat\2018-arm-elf\arm-eabi\lib\gnat\ravenscar-sfp-stm32f429disco\adalib\libgnarl.a(s-bbthqu.o)
                0x00000000200000f8                system__bb__threads__queues__global_list
 .data          0x00000000200000fc        0x0 C:\gnat\2018-arm-elf\arm-eabi\lib\gnat\ravenscar-sfp-stm32f429disco\adalib\libgnarl.a(s-bbtime.o)
 .data.system__bb__time__alarm_lock
                0x00000000200000fc        0x2 C:\gnat\2018-arm-elf\arm-eabi\lib\gnat\ravenscar-sfp-stm32f429disco\adalib\libgnarl.a(s-bbtime.o)
                0x00000000200000fc                system__bb__time__alarm_lock
 *fill*         0x00000000200000fe        0x2 
 .data.system__bb__time__max_sleep
                0x0000000020000100        0x8 C:\gnat\2018-arm-elf\arm-eabi\lib\gnat\ravenscar-sfp-stm32f429disco\adalib\libgnarl.a(s-bbtime.o)
                0x0000000020000100                system__bb__time__max_sleep
 .data.system__bb__time__pending_alarm
                0x0000000020000108        0x8 C:\gnat\2018-arm-elf\arm-eabi\lib\gnat\ravenscar-sfp-stm32f429disco\adalib\libgnarl.a(s-bbtime.o)
                0x0000000020000108                system__bb__time__pending_alarm
 .data.system__bb__time__scheduling_event_hook
                0x0000000020000110        0x4 C:\gnat\2018-arm-elf\arm-eabi\lib\gnat\ravenscar-sfp-stm32f429disco\adalib\libgnarl.a(s-bbtime.o)
                0x0000000020000110                system__bb__time__scheduling_event_hook
 .data.system__bb__time__software_clock
                0x0000000020000114        0x8 C:\gnat\2018-arm-elf\arm-eabi\lib\gnat\ravenscar-sfp-stm32f429disco\adalib\libgnarl.a(s-bbtime.o)
                0x0000000020000114                system__bb__time__software_clock
 .data          0x000000002000011c        0x0 C:\gnat\2018-arm-elf\arm-eabi\lib\gnat\ravenscar-sfp-stm32f429disco\adalib\libgnarl.a(s-bcpcst.o)
 .data          0x000000002000011c        0x0 C:\gnat\2018-arm-elf\arm-eabi\lib\gnat\ravenscar-sfp-stm32f429disco\adalib\libgnarl.a(s-taskin.o)
 .data.__gl_main_cpu
                0x000000002000011c        0x4 C:\gnat\2018-arm-elf\arm-eabi\lib\gnat\ravenscar-sfp-stm32f429disco\adalib\libgnarl.a(s-taskin.o)
                0x000000002000011c                __gl_main_cpu
 .data.__gl_main_priority
                0x0000000020000120        0x4 C:\gnat\2018-arm-elf\arm-eabi\lib\gnat\ravenscar-sfp-stm32f429disco\adalib\libgnarl.a(s-taskin.o)
                0x0000000020000120                __gl_main_priority
 .data.system__tasking__fall_back_handler
                0x0000000020000124        0x8 C:\gnat\2018-arm-elf\arm-eabi\lib\gnat\ravenscar-sfp-stm32f429disco\adalib\libgnarl.a(s-taskin.o)
                0x0000000020000124                system__tasking__fall_back_handler
 .data.system__tasking__initialized
                0x000000002000012c        0x1 C:\gnat\2018-arm-elf\arm-eabi\lib\gnat\ravenscar-sfp-stm32f429disco\adalib\libgnarl.a(s-taskin.o)
 .data          0x000000002000012d        0x0 C:\gnat\2018-arm-elf\arm-eabi\lib\gnat\ravenscar-sfp-stm32f429disco\adalib\libgnarl.a(handler.o)
 .data          0x000000002000012d        0x0 C:\gnat\2018-arm-elf\arm-eabi\lib\gnat\ravenscar-sfp-stm32f429disco\adalib\libgnarl.a(s-bbprot.o)
 *fill*         0x000000002000012d        0x3 
 .data.system__bb__protection__wakeup_served_entry_callback
                0x0000000020000130        0x4 C:\gnat\2018-arm-elf\arm-eabi\lib\gnat\ravenscar-sfp-stm32f429disco\adalib\libgnarl.a(s-bbprot.o)
                0x0000000020000130                system__bb__protection__wakeup_served_entry_callback
 .data          0x0000000020000134        0x0 C:\gnat\2018-arm-elf\arm-eabi\lib\gnat\ravenscar-sfp-stm32f429disco\adalib\libgnarl.a(s-bbthre.o)
 .data.system__bb__threads__initialized
                0x0000000020000134        0x1 C:\gnat\2018-arm-elf\arm-eabi\lib\gnat\ravenscar-sfp-stm32f429disco\adalib\libgnarl.a(s-bbthre.o)
                0x0000000020000134                system__bb__threads__initialized
 .data          0x0000000020000135        0x0 C:\gnat\2018-arm-elf\arm-eabi\lib\gnat\ravenscar-sfp-stm32f429disco\adalib\libgnarl.a(s-bbtiev.o)
 *fill*         0x0000000020000135        0x1 
 .data.system__bb__timing_events_E
                0x0000000020000136        0x2 C:\gnat\2018-arm-elf\arm-eabi\lib\gnat\ravenscar-sfp-stm32f429disco\adalib\libgnarl.a(s-bbtiev.o)
                0x0000000020000136                system__bb__timing_events_E
 .data.system__bb__timing_events__events_table
                0x0000000020000138        0x4 C:\gnat\2018-arm-elf\arm-eabi\lib\gnat\ravenscar-sfp-stm32f429disco\adalib\libgnarl.a(s-bbtiev.o)
                0x0000000020000138                system__bb__timing_events__events_table
 .data          0x000000002000013c        0x0 C:\gnat\2018-arm-elf\arm-eabi\lib\gnat\ravenscar-sfp-stm32f429disco\adalib\libgnarl.a(s-taprop.o)
 .data.system__task_primitives__operations__environment_task
                0x000000002000013c        0x4 C:\gnat\2018-arm-elf\arm-eabi\lib\gnat\ravenscar-sfp-stm32f429disco\adalib\libgnarl.a(s-taprop.o)
                0x000000002000013c                system__task_primitives__operations__environment_task
 .data          0x0000000020000140        0x0 C:\gnat\2018-arm-elf\arm-eabi\lib\gnat\ravenscar-sfp-stm32f429disco\adalib\libgnarl.a(s-tasdeb.o)
 .data.system__tasking__debug_E
                0x0000000020000140        0x2 C:\gnat\2018-arm-elf\arm-eabi\lib\gnat\ravenscar-sfp-stm32f429disco\adalib\libgnarl.a(s-tasdeb.o)
                0x0000000020000140                system__tasking__debug_E
 *fill*         0x0000000020000142        0x2 
 .data.system__tasking__debug__first_task
                0x0000000020000144        0x4 C:\gnat\2018-arm-elf\arm-eabi\lib\gnat\ravenscar-sfp-stm32f429disco\adalib\libgnarl.a(s-tasdeb.o)
                0x0000000020000144                system__tasking__debug__first_task
 .data.system__tasking__debug__last_task
                0x0000000020000148        0x4 C:\gnat\2018-arm-elf\arm-eabi\lib\gnat\ravenscar-sfp-stm32f429disco\adalib\libgnarl.a(s-tasdeb.o)
                0x0000000020000148                system__tasking__debug__last_task
 .data          0x000000002000014c        0x0 C:\gnat\2018-arm-elf\arm-eabi\lib\gnat\ravenscar-sfp-stm32f429disco\adalib\libgnat.a(a-elchha.o)
 .data.ada__exceptions__last_chance_handler_E
                0x000000002000014c        0x2 C:\gnat\2018-arm-elf\arm-eabi\lib\gnat\ravenscar-sfp-stm32f429disco\adalib\libgnat.a(a-elchha.o)
                0x000000002000014c                ada__exceptions__last_chance_handler_E
 .data          0x000000002000014e        0x0 C:\gnat\2018-arm-elf\arm-eabi\lib\gnat\ravenscar-sfp-stm32f429disco\adalib\libgnat.a(a-except.o)
 .data.ada__exceptions_E
                0x000000002000014e        0x2 C:\gnat\2018-arm-elf\arm-eabi\lib\gnat\ravenscar-sfp-stm32f429disco\adalib\libgnat.a(a-except.o)
                0x000000002000014e                ada__exceptions_E
 .data          0x0000000020000150        0x0 C:\gnat\2018-arm-elf\arm-eabi\lib\gnat\ravenscar-sfp-stm32f429disco\adalib\libgnat.a(breakpoint_handler-cortexm.o)
 .data          0x0000000020000150        0x0 C:\gnat\2018-arm-elf\arm-eabi\lib\gnat\ravenscar-sfp-stm32f429disco\adalib\libgnat.a(g-io.o)
 .data.gnat__io_E
                0x0000000020000150        0x2 C:\gnat\2018-arm-elf\arm-eabi\lib\gnat\ravenscar-sfp-stm32f429disco\adalib\libgnat.a(g-io.o)
                0x0000000020000150                gnat__io_E
 .data          0x0000000020000152        0x0 C:\gnat\2018-arm-elf\arm-eabi\lib\gnat\ravenscar-sfp-stm32f429disco\adalib\libgnat.a(s-macres.o)
 .data.system__machine_reset_E
                0x0000000020000152        0x2 C:\gnat\2018-arm-elf\arm-eabi\lib\gnat\ravenscar-sfp-stm32f429disco\adalib\libgnat.a(s-macres.o)
                0x0000000020000152                system__machine_reset_E
 .data          0x0000000020000154        0x0 C:\gnat\2018-arm-elf\arm-eabi\lib\gnat\ravenscar-sfp-stm32f429disco\adalib\libgnat.a(s-memcop.o)
 .data.system__memory_copy_E
                0x0000000020000154        0x2 C:\gnat\2018-arm-elf\arm-eabi\lib\gnat\ravenscar-sfp-stm32f429disco\adalib\libgnat.a(s-memcop.o)
                0x0000000020000154                system__memory_copy_E
 .data          0x0000000020000156        0x0 C:\gnat\2018-arm-elf\arm-eabi\lib\gnat\ravenscar-sfp-stm32f429disco\adalib\libgnat.a(s-memmov.o)
 .data.system__memory_move_E
                0x0000000020000156        0x2 C:\gnat\2018-arm-elf\arm-eabi\lib\gnat\ravenscar-sfp-stm32f429disco\adalib\libgnat.a(s-memmov.o)
                0x0000000020000156                system__memory_move_E
 .data          0x0000000020000158        0x0 C:\gnat\2018-arm-elf\arm-eabi\lib\gnat\ravenscar-sfp-stm32f429disco\adalib\libgnat.a(s-memset.o)
 .data.system__memory_set_E
                0x0000000020000158        0x2 C:\gnat\2018-arm-elf\arm-eabi\lib\gnat\ravenscar-sfp-stm32f429disco\adalib\libgnat.a(s-memset.o)
                0x0000000020000158                system__memory_set_E
 .data          0x000000002000015a        0x0 C:\gnat\2018-arm-elf\arm-eabi\lib\gnat\ravenscar-sfp-stm32f429disco\adalib\libgnat.a(s-parame.o)
 .data.system__parameters_E
                0x000000002000015a        0x2 C:\gnat\2018-arm-elf\arm-eabi\lib\gnat\ravenscar-sfp-stm32f429disco\adalib\libgnat.a(s-parame.o)
                0x000000002000015a                system__parameters_E
 .data          0x000000002000015c        0x0 C:\gnat\2018-arm-elf\arm-eabi\lib\gnat\ravenscar-sfp-stm32f429disco\adalib\libgnat.a(s-secsta.o)
 .data.system__secondary_stack_E
                0x000000002000015c        0x2 C:\gnat\2018-arm-elf\arm-eabi\lib\gnat\ravenscar-sfp-stm32f429disco\adalib\libgnat.a(s-secsta.o)
                0x000000002000015c                system__secondary_stack_E
 *fill*         0x000000002000015e        0x2 
 .data.system__secondary_stack__num_of_assigned_stacks
                0x0000000020000160        0x4 C:\gnat\2018-arm-elf\arm-eabi\lib\gnat\ravenscar-sfp-stm32f429disco\adalib\libgnat.a(s-secsta.o)
                0x0000000020000160                system__secondary_stack__num_of_assigned_stacks
 .data          0x0000000020000164        0x0 C:\gnat\2018-arm-elf\arm-eabi\lib\gnat\ravenscar-sfp-stm32f429disco\adalib\libgnat.a(s-textio.o)
 .data.system__text_io_E
                0x0000000020000164        0x2 C:\gnat\2018-arm-elf\arm-eabi\lib\gnat\ravenscar-sfp-stm32f429disco\adalib\libgnat.a(s-textio.o)
                0x0000000020000164                system__text_io_E
 .data.system__text_io__initialized
                0x0000000020000166        0x1 C:\gnat\2018-arm-elf\arm-eabi\lib\gnat\ravenscar-sfp-stm32f429disco\adalib\libgnat.a(s-textio.o)
                0x0000000020000166                system__text_io__initialized
 .data          0x0000000020000167        0x0 C:\gnat\2018-arm-elf\arm-eabi\lib\gnat\ravenscar-sfp-stm32f429disco\adalib\libgnat.a(start-rom.o)
 .data          0x0000000020000167        0x0 C:\gnat\2018-arm-elf\arm-eabi\lib\gnat\ravenscar-sfp-stm32f429disco\adalib\libgnat.a(s-semiho.o)
 *fill*         0x0000000020000167        0x1 
 .data.system__semihosting_E
                0x0000000020000168        0x2 C:\gnat\2018-arm-elf\arm-eabi\lib\gnat\ravenscar-sfp-stm32f429disco\adalib\libgnat.a(s-semiho.o)
                0x0000000020000168                system__semihosting_E
 .data.system__semihosting__buffer_index
                0x000000002000016a        0x2 C:\gnat\2018-arm-elf\arm-eabi\lib\gnat\ravenscar-sfp-stm32f429disco\adalib\libgnat.a(s-semiho.o)
 .data          0x000000002000016c        0x0 C:\gnat\2018-arm-elf\arm-eabi\lib\gnat\ravenscar-sfp-stm32f429disco\adalib\libgnat.a(setup_pll.o)
 .data.setup_pll_E
                0x000000002000016c        0x2 C:\gnat\2018-arm-elf\arm-eabi\lib\gnat\ravenscar-sfp-stm32f429disco\adalib\libgnat.a(setup_pll.o)
                0x000000002000016c                setup_pll_E
 .data          0x000000002000016e        0x0 C:\gnat\2018-arm-elf\arm-eabi\lib\gnat\ravenscar-sfp-stm32f429disco\adalib\libgnat.a(start-common.o)
 .data          0x000000002000016e        0x0 C:\gnat\2018-arm-elf\arm-eabi\lib\gnat\ravenscar-sfp-stm32f429disco\adalib\libgnat.a(s-bbmcpa.o)
 .data.system__bb__mcu_parameters_E
                0x000000002000016e        0x2 C:\gnat\2018-arm-elf\arm-eabi\lib\gnat\ravenscar-sfp-stm32f429disco\adalib\libgnat.a(s-bbmcpa.o)
                0x000000002000016e                system__bb__mcu_parameters_E
 .data          0x0000000020000170        0x0 c:/gnat/2018-arm-elf/bin/../lib/gcc/arm-eabi/7.3.1/thumb/v7e-m/fpv4-sp/hard\libgcc.a(_arm_addsubdf3.o)
 .data          0x0000000020000170        0x0 c:/gnat/2018-arm-elf/bin/../lib/gcc/arm-eabi/7.3.1/thumb/v7e-m/fpv4-sp/hard\libgcc.a(_arm_fixdfsi.o)
 .data          0x0000000020000170        0x0 c:/gnat/2018-arm-elf/bin/../lib/gcc/arm-eabi/7.3.1/thumb/v7e-m/fpv4-sp/hard\libgcc.a(_aeabi_ldivmod.o)
 .data          0x0000000020000170        0x0 c:/gnat/2018-arm-elf/bin/../lib/gcc/arm-eabi/7.3.1/thumb/v7e-m/fpv4-sp/hard\libgcc.a(_aeabi_uldivmod.o)
 .data          0x0000000020000170        0x0 c:/gnat/2018-arm-elf/bin/../lib/gcc/arm-eabi/7.3.1/thumb/v7e-m/fpv4-sp/hard\libgcc.a(_udivmoddi4.o)
 .data          0x0000000020000170        0x0 c:/gnat/2018-arm-elf/bin/../lib/gcc/arm-eabi/7.3.1/thumb/v7e-m/fpv4-sp/hard\libgcc.a(_dvmd_tls.o)
                0x0000000020000170                . = ALIGN (0x4)
                0x0000000020000170                __data_end = .
                0x000000000000005c                __data_words = ((__data_end - __data_start) >> 0x2)
                0x0000000008016154                __ccmdata_load = (__rom_end + (__data_words << 0x2))

.igot.plt       0x0000000020000170        0x0 load address 0x0000000008016154
 .igot.plt      0x0000000020000170        0x0 main.o

.ccmdata        0x0000000010000000        0x0 load address 0x0000000008016154
                0x0000000010000000                __ccmdata_start = .
 *(.ccmdata .ccmdata.*)
                0x0000000010000000                . = ALIGN (0x4)
                0x0000000010000000                __ccmdata_end = .
                0x0000000000000000                __ccmdata_words = ((__ccmdata_end - __ccmdata_start) >> 0x2)

.bss            0x0000000020000170     0x6700 load address 0x0000000008016158
                0x0000000020000170                . = ALIGN (0x8)
                0x0000000020000170                __bss_start = .
 *(.bss .bss.*)
 .bss           0x0000000020000170        0x0 main.o
 .bss           0x0000000020000170      0x210 b__main.o
 .bss           0x0000000020000380        0x0 C:\Users\Milie\Desktop\EIDD\3A\TempsReelADA\base\game_support\obj\display.o
 .bss           0x0000000020000380        0x0 C:\Users\Milie\Desktop\EIDD\3A\TempsReelADA\base\game_support\stm32f4\obj\stm32f4.o
 .bss           0x0000000020000380        0x0 C:\Users\Milie\Desktop\EIDD\3A\TempsReelADA\base\game_support\stm32f4\obj\stm32f4-dma.o
 .bss           0x0000000020000380        0x0 C:\Users\Milie\Desktop\EIDD\3A\TempsReelADA\base\game_support\stm32f4\obj\stm32f4-fmc.o
 .bss           0x0000000020000380        0x0 C:\Users\Milie\Desktop\EIDD\3A\TempsReelADA\base\game_support\stm32f4\obj\stm32f4-rcc.o
 .bss           0x0000000020000380        0x0 C:\Users\Milie\Desktop\EIDD\3A\TempsReelADA\base\game_support\stm32f4\obj\stm32f4-syscfg.o
 .bss           0x0000000020000380        0x0 C:\Users\Milie\Desktop\EIDD\3A\TempsReelADA\base\game_support\stm32f4\obj\stm32f4-gpio.o
 .bss           0x0000000020000380        0x0 C:\Users\Milie\Desktop\EIDD\3A\TempsReelADA\base\game_support\stm32f4\obj\stm32f4-i2c.o
 .bss           0x0000000020000380        0x0 C:\Users\Milie\Desktop\EIDD\3A\TempsReelADA\base\game_support\stm32f4\obj\stm32f4-spi.o
 .bss           0x0000000020000380        0x0 C:\Users\Milie\Desktop\EIDD\3A\TempsReelADA\base\game_support\stm32f4\obj\stm32f4-timers.o
 .bss           0x0000000020000380        0x0 C:\Users\Milie\Desktop\EIDD\3A\TempsReelADA\base\game_support\stm32f4\obj\stm32f4-usarts.o
 .bss           0x0000000020000380        0x4 C:\Users\Milie\Desktop\EIDD\3A\TempsReelADA\base\game_support\stm32f4\obj\stm32f429_discovery.o
                0x0000000020000380                b::stm32f429_discovery(void) static
 .bss           0x0000000020000384        0x0 C:\Users\Milie\Desktop\EIDD\3A\TempsReelADA\base\game_support\stm32f4\obj\stm32f4-sdram.o
 .bss           0x0000000020000384        0x0 C:\Users\Milie\Desktop\EIDD\3A\TempsReelADA\base\game_support\stm32f4\obj\stm32f4-lcd.o
 .bss           0x0000000020000384        0x0 C:\Users\Milie\Desktop\EIDD\3A\TempsReelADA\base\game_support\stm32f4\obj\stm32f4-touch_panel.o
 .bss           0x0000000020000384        0x0 C:\Users\Milie\Desktop\EIDD\3A\TempsReelADA\base\game_support\stm32f4\obj\screen_interface.o
 .bss           0x0000000020000384        0x0 C:\Users\Milie\Desktop\EIDD\3A\TempsReelADA\base\game_support\stm32f4\obj\fonts.o
 .bss           0x0000000020000384     0x4118 C:\Users\Milie\Desktop\EIDD\3A\TempsReelADA\base\game_support\obj\display-basic.o
                0x0000000020000384                display__basic__internal_canvas
                0x0000000020000398                display__basic__string_store
 .bss           0x000000002000449c        0x0 C:\gnat\2018-arm-elf\arm-eabi\lib\gnat\ravenscar-sfp-stm32f429disco\adalib\libgnarl.a(a-reatim.o)
 .bss           0x000000002000449c        0x0 C:\gnat\2018-arm-elf\arm-eabi\lib\gnat\ravenscar-sfp-stm32f429disco\adalib\libgnarl.a(a-retide.o)
 .bss           0x000000002000449c        0x0 C:\gnat\2018-arm-elf\arm-eabi\lib\gnat\ravenscar-sfp-stm32f429disco\adalib\libgnarl.a(s-bbbosu.o)
 .bss.__gnat_alarm_time
                0x000000002000449c        0x4 C:\gnat\2018-arm-elf\arm-eabi\lib\gnat\ravenscar-sfp-stm32f429disco\adalib\libgnarl.a(s-bbbosu.o)
                0x000000002000449c                __gnat_alarm_time
 .bss.system__bb__board_support__next_tick_time
                0x00000000200044a0        0x4 C:\gnat\2018-arm-elf\arm-eabi\lib\gnat\ravenscar-sfp-stm32f429disco\adalib\libgnarl.a(s-bbbosu.o)
                0x00000000200044a0                system__bb__board_support__next_tick_time
 .bss           0x00000000200044a4        0x0 C:\gnat\2018-arm-elf\arm-eabi\lib\gnat\ravenscar-sfp-stm32f429disco\adalib\libgnarl.a(s-bbcppr.o)
 .bss.__gnat_bb_exception_handlers
                0x00000000200044a4       0x44 C:\gnat\2018-arm-elf\arm-eabi\lib\gnat\ravenscar-sfp-stm32f429disco\adalib\libgnarl.a(s-bbcppr.o)
                0x00000000200044a4                __gnat_bb_exception_handlers
 .bss           0x00000000200044e8        0x0 C:\gnat\2018-arm-elf\arm-eabi\lib\gnat\ravenscar-sfp-stm32f429disco\adalib\libgnarl.a(s-bbinte.o)
 .bss.interrupt_stack_table
                0x00000000200044e8        0x4 C:\gnat\2018-arm-elf\arm-eabi\lib\gnat\ravenscar-sfp-stm32f429disco\adalib\libgnarl.a(s-bbinte.o)
                0x00000000200044e8                interrupt_stack_table
 .bss.system__bb__interrupts__interrupt_handlers_table
                0x00000000200044ec      0x178 C:\gnat\2018-arm-elf\arm-eabi\lib\gnat\ravenscar-sfp-stm32f429disco\adalib\libgnarl.a(s-bbinte.o)
                0x00000000200044ec                system__bb__interrupts__interrupt_handlers_table
 .bss           0x0000000020004664        0x0 C:\gnat\2018-arm-elf\arm-eabi\lib\gnat\ravenscar-sfp-stm32f429disco\adalib\libgnarl.a(s-bbthqu.o)
 .bss           0x0000000020004664        0x0 C:\gnat\2018-arm-elf\arm-eabi\lib\gnat\ravenscar-sfp-stm32f429disco\adalib\libgnarl.a(s-bbtime.o)
 .bss           0x0000000020004664        0x0 C:\gnat\2018-arm-elf\arm-eabi\lib\gnat\ravenscar-sfp-stm32f429disco\adalib\libgnarl.a(s-bcpcst.o)
 .bss           0x0000000020004664        0x0 C:\gnat\2018-arm-elf\arm-eabi\lib\gnat\ravenscar-sfp-stm32f429disco\adalib\libgnarl.a(s-taskin.o)
 *fill*         0x0000000020004664        0x4 
 .bss.system__tasking__environment_task
                0x0000000020004668       0xb8 C:\gnat\2018-arm-elf\arm-eabi\lib\gnat\ravenscar-sfp-stm32f429disco\adalib\libgnarl.a(s-taskin.o)
 .bss           0x0000000020004720        0x0 C:\gnat\2018-arm-elf\arm-eabi\lib\gnat\ravenscar-sfp-stm32f429disco\adalib\libgnarl.a(handler.o)
 .bss           0x0000000020004720        0x0 C:\gnat\2018-arm-elf\arm-eabi\lib\gnat\ravenscar-sfp-stm32f429disco\adalib\libgnarl.a(s-bbprot.o)
 .bss           0x0000000020004720        0x0 C:\gnat\2018-arm-elf\arm-eabi\lib\gnat\ravenscar-sfp-stm32f429disco\adalib\libgnarl.a(s-bbthre.o)
 .bss           0x0000000020004720        0x0 C:\gnat\2018-arm-elf\arm-eabi\lib\gnat\ravenscar-sfp-stm32f429disco\adalib\libgnarl.a(s-bbtiev.o)
 .bss           0x0000000020004720        0x0 C:\gnat\2018-arm-elf\arm-eabi\lib\gnat\ravenscar-sfp-stm32f429disco\adalib\libgnarl.a(s-taprop.o)
 .bss.__gnat_idle_stack_table
                0x0000000020004720        0x4 C:\gnat\2018-arm-elf\arm-eabi\lib\gnat\ravenscar-sfp-stm32f429disco\adalib\libgnarl.a(s-taprop.o)
                0x0000000020004720                __gnat_idle_stack_table
 *fill*         0x0000000020004724        0x4 
 .bss.system__task_primitives__operations__idle_stacks
                0x0000000020004728      0x800 C:\gnat\2018-arm-elf\arm-eabi\lib\gnat\ravenscar-sfp-stm32f429disco\adalib\libgnarl.a(s-taprop.o)
                0x0000000020004728                system__task_primitives__operations__idle_stacks
 .bss.system__task_primitives__operations__idle_tasks
                0x0000000020004f28       0xb8 C:\gnat\2018-arm-elf\arm-eabi\lib\gnat\ravenscar-sfp-stm32f429disco\adalib\libgnarl.a(s-taprop.o)
                0x0000000020004f28                system__task_primitives__operations__idle_tasks
 .bss           0x0000000020004fe0        0x0 C:\gnat\2018-arm-elf\arm-eabi\lib\gnat\ravenscar-sfp-stm32f429disco\adalib\libgnarl.a(s-tasdeb.o)
 .bss           0x0000000020004fe0        0x0 C:\gnat\2018-arm-elf\arm-eabi\lib\gnat\ravenscar-sfp-stm32f429disco\adalib\libgnat.a(a-elchha.o)
 .bss           0x0000000020004fe0        0x0 C:\gnat\2018-arm-elf\arm-eabi\lib\gnat\ravenscar-sfp-stm32f429disco\adalib\libgnat.a(a-except.o)
 .bss           0x0000000020004fe0        0x0 C:\gnat\2018-arm-elf\arm-eabi\lib\gnat\ravenscar-sfp-stm32f429disco\adalib\libgnat.a(breakpoint_handler-cortexm.o)
 .bss           0x0000000020004fe0        0x0 C:\gnat\2018-arm-elf\arm-eabi\lib\gnat\ravenscar-sfp-stm32f429disco\adalib\libgnat.a(g-io.o)
 .bss           0x0000000020004fe0        0x0 C:\gnat\2018-arm-elf\arm-eabi\lib\gnat\ravenscar-sfp-stm32f429disco\adalib\libgnat.a(s-macres.o)
 .bss           0x0000000020004fe0        0x0 C:\gnat\2018-arm-elf\arm-eabi\lib\gnat\ravenscar-sfp-stm32f429disco\adalib\libgnat.a(s-memcop.o)
 .bss           0x0000000020004fe0        0x0 C:\gnat\2018-arm-elf\arm-eabi\lib\gnat\ravenscar-sfp-stm32f429disco\adalib\libgnat.a(s-memmov.o)
 .bss           0x0000000020004fe0        0x0 C:\gnat\2018-arm-elf\arm-eabi\lib\gnat\ravenscar-sfp-stm32f429disco\adalib\libgnat.a(s-memset.o)
 .bss           0x0000000020004fe0        0x0 C:\gnat\2018-arm-elf\arm-eabi\lib\gnat\ravenscar-sfp-stm32f429disco\adalib\libgnat.a(s-parame.o)
 .bss           0x0000000020004fe0        0x0 C:\gnat\2018-arm-elf\arm-eabi\lib\gnat\ravenscar-sfp-stm32f429disco\adalib\libgnat.a(s-secsta.o)
 .bss.__gnat_binder_ss_count
                0x0000000020004fe0        0x4 C:\gnat\2018-arm-elf\arm-eabi\lib\gnat\ravenscar-sfp-stm32f429disco\adalib\libgnat.a(s-secsta.o)
                0x0000000020004fe0                __gnat_binder_ss_count
 .bss.__gnat_default_ss_pool
                0x0000000020004fe4        0x4 C:\gnat\2018-arm-elf\arm-eabi\lib\gnat\ravenscar-sfp-stm32f429disco\adalib\libgnat.a(s-secsta.o)
                0x0000000020004fe4                __gnat_default_ss_pool
 .bss.__gnat_default_ss_size
                0x0000000020004fe8        0x4 C:\gnat\2018-arm-elf\arm-eabi\lib\gnat\ravenscar-sfp-stm32f429disco\adalib\libgnat.a(s-secsta.o)
                0x0000000020004fe8                __gnat_default_ss_size
 .bss.system__secondary_stack__ss_pool
                0x0000000020004fec        0x4 C:\gnat\2018-arm-elf\arm-eabi\lib\gnat\ravenscar-sfp-stm32f429disco\adalib\libgnat.a(s-secsta.o)
                0x0000000020004fec                system__secondary_stack__ss_pool
 .bss           0x0000000020004ff0        0x0 C:\gnat\2018-arm-elf\arm-eabi\lib\gnat\ravenscar-sfp-stm32f429disco\adalib\libgnat.a(s-textio.o)
 .bss           0x0000000020004ff0        0x0 C:\gnat\2018-arm-elf\arm-eabi\lib\gnat\ravenscar-sfp-stm32f429disco\adalib\libgnat.a(start-rom.o)
 .bss           0x0000000020004ff0        0x0 C:\gnat\2018-arm-elf\arm-eabi\lib\gnat\ravenscar-sfp-stm32f429disco\adalib\libgnat.a(s-semiho.o)
 .bss.system__semihosting__buffer
                0x0000000020004ff0       0x80 C:\gnat\2018-arm-elf\arm-eabi\lib\gnat\ravenscar-sfp-stm32f429disco\adalib\libgnat.a(s-semiho.o)
 .bss           0x0000000020005070        0x0 C:\gnat\2018-arm-elf\arm-eabi\lib\gnat\ravenscar-sfp-stm32f429disco\adalib\libgnat.a(setup_pll.o)
 .bss           0x0000000020005070        0x0 C:\gnat\2018-arm-elf\arm-eabi\lib\gnat\ravenscar-sfp-stm32f429disco\adalib\libgnat.a(start-common.o)
 .bss           0x0000000020005070        0x0 C:\gnat\2018-arm-elf\arm-eabi\lib\gnat\ravenscar-sfp-stm32f429disco\adalib\libgnat.a(s-bbmcpa.o)
 .bss           0x0000000020005070        0x0 c:/gnat/2018-arm-elf/bin/../lib/gcc/arm-eabi/7.3.1/thumb/v7e-m/fpv4-sp/hard\libgcc.a(_arm_addsubdf3.o)
 .bss           0x0000000020005070        0x0 c:/gnat/2018-arm-elf/bin/../lib/gcc/arm-eabi/7.3.1/thumb/v7e-m/fpv4-sp/hard\libgcc.a(_arm_fixdfsi.o)
 .bss           0x0000000020005070        0x0 c:/gnat/2018-arm-elf/bin/../lib/gcc/arm-eabi/7.3.1/thumb/v7e-m/fpv4-sp/hard\libgcc.a(_aeabi_ldivmod.o)
 .bss           0x0000000020005070        0x0 c:/gnat/2018-arm-elf/bin/../lib/gcc/arm-eabi/7.3.1/thumb/v7e-m/fpv4-sp/hard\libgcc.a(_aeabi_uldivmod.o)
 .bss           0x0000000020005070        0x0 c:/gnat/2018-arm-elf/bin/../lib/gcc/arm-eabi/7.3.1/thumb/v7e-m/fpv4-sp/hard\libgcc.a(_udivmoddi4.o)
 .bss           0x0000000020005070        0x0 c:/gnat/2018-arm-elf/bin/../lib/gcc/arm-eabi/7.3.1/thumb/v7e-m/fpv4-sp/hard\libgcc.a(_dvmd_tls.o)
 *(COMMON)
                0x0000000020005070                . = ALIGN (0x8)
                0x0000000020005070                __bss_end = .
                0x0000000020005070                __interrupt_stack_start = .
 *(.interrupt_stacks)
 .interrupt_stacks
                0x0000000020005070      0x800 C:\gnat\2018-arm-elf\arm-eabi\lib\gnat\ravenscar-sfp-stm32f429disco\adalib\libgnarl.a(s-bbinte.o)
                0x0000000020005070                system__bb__interrupts__interrupt_stacks
                0x0000000020005870                . = ALIGN (0x8)
                0x0000000020005870                __interrupt_stack_end = .
                0x0000000020005870                __stack_start = .
                0x0000000020006870                . = (. + DEFINED (__stack_size)?__stack_size:_DEFAULT_STACK_SIZE)
 *fill*         0x0000000020005870     0x1000 
                0x0000000020006870                . = ALIGN (0x8)
                0x0000000020006870                __stack_end = .
                0x0000000020006870                _end = .
                0x0000000020006870                __heap_start = .
                0x0000000020030000                __heap_end = (ORIGIN (sram_bs) + LENGTH (sram_bs))
                0x00000000000013c0                __bss_words = ((__bss_end - __bss_start) >> 0x2)

.debug
 *(.debug)

.line
 *(.line)

.debug_srcinfo
 *(.debug_srcinfo)

.debug_sfnames
 *(.debug_sfnames)

.debug_aranges  0x0000000000000000      0x368
 *(.debug_aranges)
 .debug_aranges
                0x0000000000000000       0x20 main.o
 .debug_aranges
                0x0000000000000020       0x20 b__main.o
 .debug_aranges
                0x0000000000000040       0x18 C:\Users\Milie\Desktop\EIDD\3A\TempsReelADA\base\game_support\obj\display.o
 .debug_aranges
                0x0000000000000058       0x18 C:\Users\Milie\Desktop\EIDD\3A\TempsReelADA\base\game_support\stm32f4\obj\stm32f4.o
 .debug_aranges
                0x0000000000000070       0x20 C:\Users\Milie\Desktop\EIDD\3A\TempsReelADA\base\game_support\stm32f4\obj\stm32f4-dma.o
 .debug_aranges
                0x0000000000000090       0x20 C:\Users\Milie\Desktop\EIDD\3A\TempsReelADA\base\game_support\stm32f4\obj\stm32f4-fmc.o
 .debug_aranges
                0x00000000000000b0       0x20 C:\Users\Milie\Desktop\EIDD\3A\TempsReelADA\base\game_support\stm32f4\obj\stm32f4-rcc.o
 .debug_aranges
                0x00000000000000d0       0x20 C:\Users\Milie\Desktop\EIDD\3A\TempsReelADA\base\game_support\stm32f4\obj\stm32f4-syscfg.o
 .debug_aranges
                0x00000000000000f0       0x20 C:\Users\Milie\Desktop\EIDD\3A\TempsReelADA\base\game_support\stm32f4\obj\stm32f4-gpio.o
 .debug_aranges
                0x0000000000000110       0x20 C:\Users\Milie\Desktop\EIDD\3A\TempsReelADA\base\game_support\stm32f4\obj\stm32f4-i2c.o
 .debug_aranges
                0x0000000000000130       0x20 C:\Users\Milie\Desktop\EIDD\3A\TempsReelADA\base\game_support\stm32f4\obj\stm32f4-spi.o
 .debug_aranges
                0x0000000000000150       0x20 C:\Users\Milie\Desktop\EIDD\3A\TempsReelADA\base\game_support\stm32f4\obj\stm32f4-timers.o
 .debug_aranges
                0x0000000000000170       0x20 C:\Users\Milie\Desktop\EIDD\3A\TempsReelADA\base\game_support\stm32f4\obj\stm32f4-usarts.o
 .debug_aranges
                0x0000000000000190       0x20 C:\Users\Milie\Desktop\EIDD\3A\TempsReelADA\base\game_support\stm32f4\obj\stm32f429_discovery.o
 .debug_aranges
                0x00000000000001b0       0x20 C:\Users\Milie\Desktop\EIDD\3A\TempsReelADA\base\game_support\stm32f4\obj\stm32f4-sdram.o
 .debug_aranges
                0x00000000000001d0       0x20 C:\Users\Milie\Desktop\EIDD\3A\TempsReelADA\base\game_support\stm32f4\obj\stm32f4-lcd.o
 .debug_aranges
                0x00000000000001f0       0x20 C:\Users\Milie\Desktop\EIDD\3A\TempsReelADA\base\game_support\stm32f4\obj\stm32f4-touch_panel.o
 .debug_aranges
                0x0000000000000210       0x20 C:\Users\Milie\Desktop\EIDD\3A\TempsReelADA\base\game_support\stm32f4\obj\screen_interface.o
 .debug_aranges
                0x0000000000000230       0x20 C:\Users\Milie\Desktop\EIDD\3A\TempsReelADA\base\game_support\stm32f4\obj\fonts.o
 .debug_aranges
                0x0000000000000250       0x20 C:\Users\Milie\Desktop\EIDD\3A\TempsReelADA\base\game_support\obj\display-basic.o
 .debug_aranges
                0x0000000000000270       0x20 C:\gnat\2018-arm-elf\arm-eabi\lib\gnat\ravenscar-sfp-stm32f429disco\adalib\libgnarl.a(s-tasdeb.o)
 .debug_aranges
                0x0000000000000290       0x18 C:\gnat\2018-arm-elf\arm-eabi\lib\gnat\ravenscar-sfp-stm32f429disco\adalib\libgnat.a(a-except.o)
 .debug_aranges
                0x00000000000002a8       0x20 c:/gnat/2018-arm-elf/bin/../lib/gcc/arm-eabi/7.3.1/thumb/v7e-m/fpv4-sp/hard\libgcc.a(_arm_addsubdf3.o)
 .debug_aranges
                0x00000000000002c8       0x20 c:/gnat/2018-arm-elf/bin/../lib/gcc/arm-eabi/7.3.1/thumb/v7e-m/fpv4-sp/hard\libgcc.a(_arm_fixdfsi.o)
 .debug_aranges
                0x00000000000002e8       0x20 c:/gnat/2018-arm-elf/bin/../lib/gcc/arm-eabi/7.3.1/thumb/v7e-m/fpv4-sp/hard\libgcc.a(_aeabi_ldivmod.o)
 .debug_aranges
                0x0000000000000308       0x20 c:/gnat/2018-arm-elf/bin/../lib/gcc/arm-eabi/7.3.1/thumb/v7e-m/fpv4-sp/hard\libgcc.a(_aeabi_uldivmod.o)
 .debug_aranges
                0x0000000000000328       0x20 c:/gnat/2018-arm-elf/bin/../lib/gcc/arm-eabi/7.3.1/thumb/v7e-m/fpv4-sp/hard\libgcc.a(_udivmoddi4.o)
 .debug_aranges
                0x0000000000000348       0x20 c:/gnat/2018-arm-elf/bin/../lib/gcc/arm-eabi/7.3.1/thumb/v7e-m/fpv4-sp/hard\libgcc.a(_dvmd_tls.o)

.debug_pubnames
 *(.debug_pubnames)

.debug_info     0x0000000000000000    0x14735
 *(.debug_info .gnu.linkonce.wi.*)
 .debug_info    0x0000000000000000      0x153 main.o
 .debug_info    0x0000000000000153      0x46f b__main.o
 .debug_info    0x00000000000005c2      0x222 C:\Users\Milie\Desktop\EIDD\3A\TempsReelADA\base\game_support\obj\display.o
 .debug_info    0x00000000000007e4       0xd4 C:\Users\Milie\Desktop\EIDD\3A\TempsReelADA\base\game_support\stm32f4\obj\stm32f4.o
 .debug_info    0x00000000000008b8     0x164c C:\Users\Milie\Desktop\EIDD\3A\TempsReelADA\base\game_support\stm32f4\obj\stm32f4-dma.o
 .debug_info    0x0000000000001f04      0x4b6 C:\Users\Milie\Desktop\EIDD\3A\TempsReelADA\base\game_support\stm32f4\obj\stm32f4-fmc.o
 .debug_info    0x00000000000023ba     0x12fd C:\Users\Milie\Desktop\EIDD\3A\TempsReelADA\base\game_support\stm32f4\obj\stm32f4-rcc.o
 .debug_info    0x00000000000036b7      0xa5f C:\Users\Milie\Desktop\EIDD\3A\TempsReelADA\base\game_support\stm32f4\obj\stm32f4-syscfg.o
 .debug_info    0x0000000000004116     0x1074 C:\Users\Milie\Desktop\EIDD\3A\TempsReelADA\base\game_support\stm32f4\obj\stm32f4-gpio.o
 .debug_info    0x000000000000518a      0xa5d C:\Users\Milie\Desktop\EIDD\3A\TempsReelADA\base\game_support\stm32f4\obj\stm32f4-i2c.o
 .debug_info    0x0000000000005be7      0xf24 C:\Users\Milie\Desktop\EIDD\3A\TempsReelADA\base\game_support\stm32f4\obj\stm32f4-spi.o
 .debug_info    0x0000000000006b0b     0x301f C:\Users\Milie\Desktop\EIDD\3A\TempsReelADA\base\game_support\stm32f4\obj\stm32f4-timers.o
 .debug_info    0x0000000000009b2a      0xb28 C:\Users\Milie\Desktop\EIDD\3A\TempsReelADA\base\game_support\stm32f4\obj\stm32f4-usarts.o
 .debug_info    0x000000000000a652     0x2b47 C:\Users\Milie\Desktop\EIDD\3A\TempsReelADA\base\game_support\stm32f4\obj\stm32f429_discovery.o
 .debug_info    0x000000000000d199      0x3f4 C:\Users\Milie\Desktop\EIDD\3A\TempsReelADA\base\game_support\stm32f4\obj\stm32f4-sdram.o
 .debug_info    0x000000000000d58d     0x2dc8 C:\Users\Milie\Desktop\EIDD\3A\TempsReelADA\base\game_support\stm32f4\obj\stm32f4-lcd.o
 .debug_info    0x0000000000010355      0xd29 C:\Users\Milie\Desktop\EIDD\3A\TempsReelADA\base\game_support\stm32f4\obj\stm32f4-touch_panel.o
 .debug_info    0x000000000001107e      0x4a9 C:\Users\Milie\Desktop\EIDD\3A\TempsReelADA\base\game_support\stm32f4\obj\screen_interface.o
 .debug_info    0x0000000000011527      0x919 C:\Users\Milie\Desktop\EIDD\3A\TempsReelADA\base\game_support\stm32f4\obj\fonts.o
 .debug_info    0x0000000000011e40     0x1394 C:\Users\Milie\Desktop\EIDD\3A\TempsReelADA\base\game_support\obj\display-basic.o
 .debug_info    0x00000000000131d4      0x65b C:\gnat\2018-arm-elf\arm-eabi\lib\gnat\ravenscar-sfp-stm32f429disco\adalib\libgnarl.a(s-tasdeb.o)
 .debug_info    0x000000000001382f      0x149 C:\gnat\2018-arm-elf\arm-eabi\lib\gnat\ravenscar-sfp-stm32f429disco\adalib\libgnat.a(a-except.o)
 .debug_info    0x0000000000013978       0x26 c:/gnat/2018-arm-elf/bin/../lib/gcc/arm-eabi/7.3.1/thumb/v7e-m/fpv4-sp/hard\libgcc.a(_arm_addsubdf3.o)
 .debug_info    0x000000000001399e       0x26 c:/gnat/2018-arm-elf/bin/../lib/gcc/arm-eabi/7.3.1/thumb/v7e-m/fpv4-sp/hard\libgcc.a(_arm_fixdfsi.o)
 .debug_info    0x00000000000139c4       0x26 c:/gnat/2018-arm-elf/bin/../lib/gcc/arm-eabi/7.3.1/thumb/v7e-m/fpv4-sp/hard\libgcc.a(_aeabi_ldivmod.o)
 .debug_info    0x00000000000139ea       0x26 c:/gnat/2018-arm-elf/bin/../lib/gcc/arm-eabi/7.3.1/thumb/v7e-m/fpv4-sp/hard\libgcc.a(_aeabi_uldivmod.o)
 .debug_info    0x0000000000013a10      0xcff c:/gnat/2018-arm-elf/bin/../lib/gcc/arm-eabi/7.3.1/thumb/v7e-m/fpv4-sp/hard\libgcc.a(_udivmoddi4.o)
 .debug_info    0x000000000001470f       0x26 c:/gnat/2018-arm-elf/bin/../lib/gcc/arm-eabi/7.3.1/thumb/v7e-m/fpv4-sp/hard\libgcc.a(_dvmd_tls.o)

.debug_abbrev   0x0000000000000000     0x3190
 *(.debug_abbrev)
 .debug_abbrev  0x0000000000000000       0xb5 main.o
 .debug_abbrev  0x00000000000000b5      0x202 b__main.o
 .debug_abbrev  0x00000000000002b7       0xc9 C:\Users\Milie\Desktop\EIDD\3A\TempsReelADA\base\game_support\obj\display.o
 .debug_abbrev  0x0000000000000380       0x28 C:\Users\Milie\Desktop\EIDD\3A\TempsReelADA\base\game_support\stm32f4\obj\stm32f4.o
 .debug_abbrev  0x00000000000003a8      0x35a C:\Users\Milie\Desktop\EIDD\3A\TempsReelADA\base\game_support\stm32f4\obj\stm32f4-dma.o
 .debug_abbrev  0x0000000000000702      0x16f C:\Users\Milie\Desktop\EIDD\3A\TempsReelADA\base\game_support\stm32f4\obj\stm32f4-fmc.o
 .debug_abbrev  0x0000000000000871      0x19e C:\Users\Milie\Desktop\EIDD\3A\TempsReelADA\base\game_support\stm32f4\obj\stm32f4-rcc.o
 .debug_abbrev  0x0000000000000a0f      0x292 C:\Users\Milie\Desktop\EIDD\3A\TempsReelADA\base\game_support\stm32f4\obj\stm32f4-syscfg.o
 .debug_abbrev  0x0000000000000ca1      0x311 C:\Users\Milie\Desktop\EIDD\3A\TempsReelADA\base\game_support\stm32f4\obj\stm32f4-gpio.o
 .debug_abbrev  0x0000000000000fb2      0x250 C:\Users\Milie\Desktop\EIDD\3A\TempsReelADA\base\game_support\stm32f4\obj\stm32f4-i2c.o
 .debug_abbrev  0x0000000000001202      0x1b0 C:\Users\Milie\Desktop\EIDD\3A\TempsReelADA\base\game_support\stm32f4\obj\stm32f4-spi.o
 .debug_abbrev  0x00000000000013b2      0x39c C:\Users\Milie\Desktop\EIDD\3A\TempsReelADA\base\game_support\stm32f4\obj\stm32f4-timers.o
 .debug_abbrev  0x000000000000174e      0x28d C:\Users\Milie\Desktop\EIDD\3A\TempsReelADA\base\game_support\stm32f4\obj\stm32f4-usarts.o
 .debug_abbrev  0x00000000000019db      0x350 C:\Users\Milie\Desktop\EIDD\3A\TempsReelADA\base\game_support\stm32f4\obj\stm32f429_discovery.o
 .debug_abbrev  0x0000000000001d2b      0x133 C:\Users\Milie\Desktop\EIDD\3A\TempsReelADA\base\game_support\stm32f4\obj\stm32f4-sdram.o
 .debug_abbrev  0x0000000000001e5e      0x43e C:\Users\Milie\Desktop\EIDD\3A\TempsReelADA\base\game_support\stm32f4\obj\stm32f4-lcd.o
 .debug_abbrev  0x000000000000229c      0x2e2 C:\Users\Milie\Desktop\EIDD\3A\TempsReelADA\base\game_support\stm32f4\obj\stm32f4-touch_panel.o
 .debug_abbrev  0x000000000000257e      0x18f C:\Users\Milie\Desktop\EIDD\3A\TempsReelADA\base\game_support\stm32f4\obj\screen_interface.o
 .debug_abbrev  0x000000000000270d      0x1c3 C:\Users\Milie\Desktop\EIDD\3A\TempsReelADA\base\game_support\stm32f4\obj\fonts.o
 .debug_abbrev  0x00000000000028d0      0x3cb C:\Users\Milie\Desktop\EIDD\3A\TempsReelADA\base\game_support\obj\display-basic.o
 .debug_abbrev  0x0000000000002c9b      0x232 C:\gnat\2018-arm-elf\arm-eabi\lib\gnat\ravenscar-sfp-stm32f429disco\adalib\libgnarl.a(s-tasdeb.o)
 .debug_abbrev  0x0000000000002ecd       0xc6 C:\gnat\2018-arm-elf\arm-eabi\lib\gnat\ravenscar-sfp-stm32f429disco\adalib\libgnat.a(a-except.o)
 .debug_abbrev  0x0000000000002f93       0x14 c:/gnat/2018-arm-elf/bin/../lib/gcc/arm-eabi/7.3.1/thumb/v7e-m/fpv4-sp/hard\libgcc.a(_arm_addsubdf3.o)
 .debug_abbrev  0x0000000000002fa7       0x14 c:/gnat/2018-arm-elf/bin/../lib/gcc/arm-eabi/7.3.1/thumb/v7e-m/fpv4-sp/hard\libgcc.a(_arm_fixdfsi.o)
 .debug_abbrev  0x0000000000002fbb       0x14 c:/gnat/2018-arm-elf/bin/../lib/gcc/arm-eabi/7.3.1/thumb/v7e-m/fpv4-sp/hard\libgcc.a(_aeabi_ldivmod.o)
 .debug_abbrev  0x0000000000002fcf       0x14 c:/gnat/2018-arm-elf/bin/../lib/gcc/arm-eabi/7.3.1/thumb/v7e-m/fpv4-sp/hard\libgcc.a(_aeabi_uldivmod.o)
 .debug_abbrev  0x0000000000002fe3      0x199 c:/gnat/2018-arm-elf/bin/../lib/gcc/arm-eabi/7.3.1/thumb/v7e-m/fpv4-sp/hard\libgcc.a(_udivmoddi4.o)
 .debug_abbrev  0x000000000000317c       0x14 c:/gnat/2018-arm-elf/bin/../lib/gcc/arm-eabi/7.3.1/thumb/v7e-m/fpv4-sp/hard\libgcc.a(_dvmd_tls.o)

.debug_line     0x0000000000000000     0x4ae3
 *(.debug_line)
 .debug_line    0x0000000000000000      0x109 main.o
 .debug_line    0x0000000000000109       0xec b__main.o
 .debug_line    0x00000000000001f5       0x7c C:\Users\Milie\Desktop\EIDD\3A\TempsReelADA\base\game_support\obj\display.o
 .debug_line    0x0000000000000271       0x1d C:\Users\Milie\Desktop\EIDD\3A\TempsReelADA\base\game_support\stm32f4\obj\stm32f4.o
 .debug_line    0x000000000000028e      0x4a5 C:\Users\Milie\Desktop\EIDD\3A\TempsReelADA\base\game_support\stm32f4\obj\stm32f4-dma.o
 .debug_line    0x0000000000000733      0x132 C:\Users\Milie\Desktop\EIDD\3A\TempsReelADA\base\game_support\stm32f4\obj\stm32f4-fmc.o
 .debug_line    0x0000000000000865      0x43c C:\Users\Milie\Desktop\EIDD\3A\TempsReelADA\base\game_support\stm32f4\obj\stm32f4-rcc.o
 .debug_line    0x0000000000000ca1      0x1f0 C:\Users\Milie\Desktop\EIDD\3A\TempsReelADA\base\game_support\stm32f4\obj\stm32f4-syscfg.o
 .debug_line    0x0000000000000e91      0x334 C:\Users\Milie\Desktop\EIDD\3A\TempsReelADA\base\game_support\stm32f4\obj\stm32f4-gpio.o
 .debug_line    0x00000000000011c5      0x2a6 C:\Users\Milie\Desktop\EIDD\3A\TempsReelADA\base\game_support\stm32f4\obj\stm32f4-i2c.o
 .debug_line    0x000000000000146b      0x20d C:\Users\Milie\Desktop\EIDD\3A\TempsReelADA\base\game_support\stm32f4\obj\stm32f4-spi.o
 .debug_line    0x0000000000001678      0xb43 C:\Users\Milie\Desktop\EIDD\3A\TempsReelADA\base\game_support\stm32f4\obj\stm32f4-timers.o
 .debug_line    0x00000000000021bb      0x1eb C:\Users\Milie\Desktop\EIDD\3A\TempsReelADA\base\game_support\stm32f4\obj\stm32f4-usarts.o
 .debug_line    0x00000000000023a6      0x270 C:\Users\Milie\Desktop\EIDD\3A\TempsReelADA\base\game_support\stm32f4\obj\stm32f429_discovery.o
 .debug_line    0x0000000000002616      0x10f C:\Users\Milie\Desktop\EIDD\3A\TempsReelADA\base\game_support\stm32f4\obj\stm32f4-sdram.o
 .debug_line    0x0000000000002725      0x36b C:\Users\Milie\Desktop\EIDD\3A\TempsReelADA\base\game_support\stm32f4\obj\stm32f4-lcd.o
 .debug_line    0x0000000000002a90      0x1dc C:\Users\Milie\Desktop\EIDD\3A\TempsReelADA\base\game_support\stm32f4\obj\stm32f4-touch_panel.o
 .debug_line    0x0000000000002c6c      0x204 C:\Users\Milie\Desktop\EIDD\3A\TempsReelADA\base\game_support\stm32f4\obj\screen_interface.o
 .debug_line    0x0000000000002e70      0x704 C:\Users\Milie\Desktop\EIDD\3A\TempsReelADA\base\game_support\stm32f4\obj\fonts.o
 .debug_line    0x0000000000003574      0xc46 C:\Users\Milie\Desktop\EIDD\3A\TempsReelADA\base\game_support\obj\display-basic.o
 .debug_line    0x00000000000041ba      0x2a7 C:\gnat\2018-arm-elf\arm-eabi\lib\gnat\ravenscar-sfp-stm32f429disco\adalib\libgnarl.a(s-tasdeb.o)
 .debug_line    0x0000000000004461       0xbc C:\gnat\2018-arm-elf\arm-eabi\lib\gnat\ravenscar-sfp-stm32f429disco\adalib\libgnat.a(a-except.o)
 .debug_line    0x000000000000451d      0x18c c:/gnat/2018-arm-elf/bin/../lib/gcc/arm-eabi/7.3.1/thumb/v7e-m/fpv4-sp/hard\libgcc.a(_arm_addsubdf3.o)
 .debug_line    0x00000000000046a9       0x80 c:/gnat/2018-arm-elf/bin/../lib/gcc/arm-eabi/7.3.1/thumb/v7e-m/fpv4-sp/hard\libgcc.a(_arm_fixdfsi.o)
 .debug_line    0x0000000000004729       0x85 c:/gnat/2018-arm-elf/bin/../lib/gcc/arm-eabi/7.3.1/thumb/v7e-m/fpv4-sp/hard\libgcc.a(_aeabi_ldivmod.o)
 .debug_line    0x00000000000047ae       0x67 c:/gnat/2018-arm-elf/bin/../lib/gcc/arm-eabi/7.3.1/thumb/v7e-m/fpv4-sp/hard\libgcc.a(_aeabi_uldivmod.o)
 .debug_line    0x0000000000004815      0x267 c:/gnat/2018-arm-elf/bin/../lib/gcc/arm-eabi/7.3.1/thumb/v7e-m/fpv4-sp/hard\libgcc.a(_udivmoddi4.o)
 .debug_line    0x0000000000004a7c       0x67 c:/gnat/2018-arm-elf/bin/../lib/gcc/arm-eabi/7.3.1/thumb/v7e-m/fpv4-sp/hard\libgcc.a(_dvmd_tls.o)

.debug_frame    0x0000000000000000     0x68f0
 *(.debug_frame)
 .debug_frame   0x0000000000000000       0x38 main.o
 .debug_frame   0x0000000000000038       0x9c b__main.o
 .debug_frame   0x00000000000000d4       0x60 C:\Users\Milie\Desktop\EIDD\3A\TempsReelADA\base\game_support\obj\display.o
 .debug_frame   0x0000000000000134       0x88 C:\Users\Milie\Desktop\EIDD\3A\TempsReelADA\base\game_support\stm32f4\obj\stm32f4.o
 .debug_frame   0x00000000000001bc      0x6a4 C:\Users\Milie\Desktop\EIDD\3A\TempsReelADA\base\game_support\stm32f4\obj\stm32f4-dma.o
 .debug_frame   0x0000000000000860      0x234 C:\Users\Milie\Desktop\EIDD\3A\TempsReelADA\base\game_support\stm32f4\obj\stm32f4-fmc.o
 .debug_frame   0x0000000000000a94     0x1ab4 C:\Users\Milie\Desktop\EIDD\3A\TempsReelADA\base\game_support\stm32f4\obj\stm32f4-rcc.o
 .debug_frame   0x0000000000002548      0x23c C:\Users\Milie\Desktop\EIDD\3A\TempsReelADA\base\game_support\stm32f4\obj\stm32f4-syscfg.o
 .debug_frame   0x0000000000002784      0x510 C:\Users\Milie\Desktop\EIDD\3A\TempsReelADA\base\game_support\stm32f4\obj\stm32f4-gpio.o
 .debug_frame   0x0000000000002c94      0x47c C:\Users\Milie\Desktop\EIDD\3A\TempsReelADA\base\game_support\stm32f4\obj\stm32f4-i2c.o
 .debug_frame   0x0000000000003110      0x3c4 C:\Users\Milie\Desktop\EIDD\3A\TempsReelADA\base\game_support\stm32f4\obj\stm32f4-spi.o
 .debug_frame   0x00000000000034d4     0x13dc C:\Users\Milie\Desktop\EIDD\3A\TempsReelADA\base\game_support\stm32f4\obj\stm32f4-timers.o
 .debug_frame   0x00000000000048b0      0x5b0 C:\Users\Milie\Desktop\EIDD\3A\TempsReelADA\base\game_support\stm32f4\obj\stm32f4-usarts.o
 .debug_frame   0x0000000000004e60      0x268 C:\Users\Milie\Desktop\EIDD\3A\TempsReelADA\base\game_support\stm32f4\obj\stm32f429_discovery.o
 .debug_frame   0x00000000000050c8       0xa8 C:\Users\Milie\Desktop\EIDD\3A\TempsReelADA\base\game_support\stm32f4\obj\stm32f4-sdram.o
 .debug_frame   0x0000000000005170      0x77c C:\Users\Milie\Desktop\EIDD\3A\TempsReelADA\base\game_support\stm32f4\obj\stm32f4-lcd.o
 .debug_frame   0x00000000000058ec      0x220 C:\Users\Milie\Desktop\EIDD\3A\TempsReelADA\base\game_support\stm32f4\obj\stm32f4-touch_panel.o
 .debug_frame   0x0000000000005b0c      0x180 C:\Users\Milie\Desktop\EIDD\3A\TempsReelADA\base\game_support\stm32f4\obj\screen_interface.o
 .debug_frame   0x0000000000005c8c      0x1d4 C:\Users\Milie\Desktop\EIDD\3A\TempsReelADA\base\game_support\stm32f4\obj\fonts.o
 .debug_frame   0x0000000000005e60      0x8e4 C:\Users\Milie\Desktop\EIDD\3A\TempsReelADA\base\game_support\obj\display-basic.o
 .debug_frame   0x0000000000006744       0x38 C:\gnat\2018-arm-elf\arm-eabi\lib\gnat\ravenscar-sfp-stm32f429disco\adalib\libgnarl.a(s-tasdeb.o)
 .debug_frame   0x000000000000677c       0xac c:/gnat/2018-arm-elf/bin/../lib/gcc/arm-eabi/7.3.1/thumb/v7e-m/fpv4-sp/hard\libgcc.a(_arm_addsubdf3.o)
 .debug_frame   0x0000000000006828       0x24 c:/gnat/2018-arm-elf/bin/../lib/gcc/arm-eabi/7.3.1/thumb/v7e-m/fpv4-sp/hard\libgcc.a(_arm_fixdfsi.o)
 .debug_frame   0x000000000000684c       0x44 c:/gnat/2018-arm-elf/bin/../lib/gcc/arm-eabi/7.3.1/thumb/v7e-m/fpv4-sp/hard\libgcc.a(_aeabi_ldivmod.o)
 .debug_frame   0x0000000000006890       0x2c c:/gnat/2018-arm-elf/bin/../lib/gcc/arm-eabi/7.3.1/thumb/v7e-m/fpv4-sp/hard\libgcc.a(_aeabi_uldivmod.o)
 .debug_frame   0x00000000000068bc       0x34 c:/gnat/2018-arm-elf/bin/../lib/gcc/arm-eabi/7.3.1/thumb/v7e-m/fpv4-sp/hard\libgcc.a(_udivmoddi4.o)

.debug_str      0x0000000000000000    0x10784
 *(.debug_str)
 .debug_str     0x0000000000000000      0x341 main.o
                                        0x377 (size before relaxing)
 .debug_str     0x0000000000000341      0x7c1 b__main.o
                                        0x835 (size before relaxing)
 .debug_str     0x0000000000000b02      0x3a1 C:\Users\Milie\Desktop\EIDD\3A\TempsReelADA\base\game_support\obj\display.o
                                        0x409 (size before relaxing)
 .debug_str     0x0000000000000ea3      0x43a C:\Users\Milie\Desktop\EIDD\3A\TempsReelADA\base\game_support\stm32f4\obj\stm32f4.o
                                        0x442 (size before relaxing)
 .debug_str     0x00000000000012dd     0x1506 C:\Users\Milie\Desktop\EIDD\3A\TempsReelADA\base\game_support\stm32f4\obj\stm32f4-dma.o
                                       0x189c (size before relaxing)
 .debug_str     0x00000000000027e3      0x42d C:\Users\Milie\Desktop\EIDD\3A\TempsReelADA\base\game_support\stm32f4\obj\stm32f4-fmc.o
                                        0x670 (size before relaxing)
 .debug_str     0x0000000000002c10     0x1df5 C:\Users\Milie\Desktop\EIDD\3A\TempsReelADA\base\game_support\stm32f4\obj\stm32f4-rcc.o
                                       0x2064 (size before relaxing)
 .debug_str     0x0000000000004a05      0xc92 C:\Users\Milie\Desktop\EIDD\3A\TempsReelADA\base\game_support\stm32f4\obj\stm32f4-syscfg.o
                                        0xfb3 (size before relaxing)
 .debug_str     0x0000000000005697      0x8e0 C:\Users\Milie\Desktop\EIDD\3A\TempsReelADA\base\game_support\stm32f4\obj\stm32f4-gpio.o
                                       0x12ae (size before relaxing)
 .debug_str     0x0000000000005f77      0xa4d C:\Users\Milie\Desktop\EIDD\3A\TempsReelADA\base\game_support\stm32f4\obj\stm32f4-i2c.o
                                        0xe5f (size before relaxing)
 .debug_str     0x00000000000069c4      0x8a8 C:\Users\Milie\Desktop\EIDD\3A\TempsReelADA\base\game_support\stm32f4\obj\stm32f4-spi.o
                                        0xcba (size before relaxing)
 .debug_str     0x000000000000726c     0x325e C:\Users\Milie\Desktop\EIDD\3A\TempsReelADA\base\game_support\stm32f4\obj\stm32f4-timers.o
                                       0x3871 (size before relaxing)
 .debug_str     0x000000000000a4ca      0xc29 C:\Users\Milie\Desktop\EIDD\3A\TempsReelADA\base\game_support\stm32f4\obj\stm32f4-usarts.o
                                        0xf9b (size before relaxing)
 .debug_str     0x000000000000b0f3      0x825 C:\Users\Milie\Desktop\EIDD\3A\TempsReelADA\base\game_support\stm32f4\obj\stm32f429_discovery.o
                                       0x38b5 (size before relaxing)
 .debug_str     0x000000000000b918      0x10e C:\Users\Milie\Desktop\EIDD\3A\TempsReelADA\base\game_support\stm32f4\obj\stm32f4-sdram.o
                                        0x823 (size before relaxing)
 .debug_str     0x000000000000ba26      0xc21 C:\Users\Milie\Desktop\EIDD\3A\TempsReelADA\base\game_support\stm32f4\obj\stm32f4-lcd.o
                                       0x1e70 (size before relaxing)
 .debug_str     0x000000000000c647      0xc01 C:\Users\Milie\Desktop\EIDD\3A\TempsReelADA\base\game_support\stm32f4\obj\stm32f4-touch_panel.o
                                       0x1625 (size before relaxing)
 .debug_str     0x000000000000d248      0x35b C:\Users\Milie\Desktop\EIDD\3A\TempsReelADA\base\game_support\stm32f4\obj\screen_interface.o
                                        0x6c5 (size before relaxing)
 .debug_str     0x000000000000d5a3      0x28b C:\Users\Milie\Desktop\EIDD\3A\TempsReelADA\base\game_support\stm32f4\obj\fonts.o
                                        0x583 (size before relaxing)
 .debug_str     0x000000000000d82e      0xa9a C:\Users\Milie\Desktop\EIDD\3A\TempsReelADA\base\game_support\obj\display-basic.o
                                        0xfcd (size before relaxing)
 .debug_str     0x000000000000e2c8      0xc73 C:\gnat\2018-arm-elf\arm-eabi\lib\gnat\ravenscar-sfp-stm32f429disco\adalib\libgnarl.a(s-tasdeb.o)
                                        0xf67 (size before relaxing)
 .debug_str     0x000000000000ef3b      0x3d9 C:\gnat\2018-arm-elf\arm-eabi\lib\gnat\ravenscar-sfp-stm32f429disco\adalib\libgnat.a(a-except.o)
                                        0x4b8 (size before relaxing)
 .debug_str     0x000000000000f314       0xa8 c:/gnat/2018-arm-elf/bin/../lib/gcc/arm-eabi/7.3.1/thumb/v7e-m/fpv4-sp/hard\libgcc.a(_arm_addsubdf3.o)
 .debug_str     0x000000000000f3bc       0xa8 c:/gnat/2018-arm-elf/bin/../lib/gcc/arm-eabi/7.3.1/thumb/v7e-m/fpv4-sp/hard\libgcc.a(_arm_fixdfsi.o)
 .debug_str     0x000000000000f3bc       0x33 c:/gnat/2018-arm-elf/bin/../lib/gcc/arm-eabi/7.3.1/thumb/v7e-m/fpv4-sp/hard\libgcc.a(_aeabi_ldivmod.o)
                                         0xa3 (size before relaxing)
 .debug_str     0x000000000000f3ef       0xa3 c:/gnat/2018-arm-elf/bin/../lib/gcc/arm-eabi/7.3.1/thumb/v7e-m/fpv4-sp/hard\libgcc.a(_aeabi_uldivmod.o)
 .debug_str     0x000000000000f3ef     0x135e c:/gnat/2018-arm-elf/bin/../lib/gcc/arm-eabi/7.3.1/thumb/v7e-m/fpv4-sp/hard\libgcc.a(_udivmoddi4.o)
                                       0x1402 (size before relaxing)
 .debug_str     0x000000000001074d       0x37 c:/gnat/2018-arm-elf/bin/../lib/gcc/arm-eabi/7.3.1/thumb/v7e-m/fpv4-sp/hard\libgcc.a(_dvmd_tls.o)
                                         0xa7 (size before relaxing)

.debug_loc      0x0000000000000000      0xdaa
 *(.debug_loc)
 .debug_loc     0x0000000000000000      0xdaa c:/gnat/2018-arm-elf/bin/../lib/gcc/arm-eabi/7.3.1/thumb/v7e-m/fpv4-sp/hard\libgcc.a(_udivmoddi4.o)

.debug_macinfo
 *(.debug_macinfo)

.debug_pubtypes
 *(.debug_pubtypes)

.debug_ranges   0x0000000000000000      0x118
 *(.debug_ranges)
 .debug_ranges  0x0000000000000000       0x30 C:\Users\Milie\Desktop\EIDD\3A\TempsReelADA\base\game_support\stm32f4\obj\fonts.o
 .debug_ranges  0x0000000000000030       0x10 C:\gnat\2018-arm-elf\arm-eabi\lib\gnat\ravenscar-sfp-stm32f429disco\adalib\libgnarl.a(s-tasdeb.o)
 .debug_ranges  0x0000000000000040       0xd8 c:/gnat/2018-arm-elf/bin/../lib/gcc/arm-eabi/7.3.1/thumb/v7e-m/fpv4-sp/hard\libgcc.a(_udivmoddi4.o)

.comment        0x0000000000000000       0x3d
 .comment       0x0000000000000000       0x3d main.o
                                         0x3e (size before relaxing)
 .comment       0x000000000000003d       0x3e b__main.o
 .comment       0x000000000000003d       0x3e C:\Users\Milie\Desktop\EIDD\3A\TempsReelADA\base\game_support\obj\display.o
 .comment       0x000000000000003d       0x3e C:\Users\Milie\Desktop\EIDD\3A\TempsReelADA\base\game_support\stm32f4\obj\stm32f4.o
 .comment       0x000000000000003d       0x3e C:\Users\Milie\Desktop\EIDD\3A\TempsReelADA\base\game_support\stm32f4\obj\stm32f4-dma.o
 .comment       0x000000000000003d       0x3e C:\Users\Milie\Desktop\EIDD\3A\TempsReelADA\base\game_support\stm32f4\obj\stm32f4-fmc.o
 .comment       0x000000000000003d       0x3e C:\Users\Milie\Desktop\EIDD\3A\TempsReelADA\base\game_support\stm32f4\obj\stm32f4-rcc.o
 .comment       0x000000000000003d       0x3e C:\Users\Milie\Desktop\EIDD\3A\TempsReelADA\base\game_support\stm32f4\obj\stm32f4-syscfg.o
 .comment       0x000000000000003d       0x3e C:\Users\Milie\Desktop\EIDD\3A\TempsReelADA\base\game_support\stm32f4\obj\stm32f4-gpio.o
 .comment       0x000000000000003d       0x3e C:\Users\Milie\Desktop\EIDD\3A\TempsReelADA\base\game_support\stm32f4\obj\stm32f4-i2c.o
 .comment       0x000000000000003d       0x3e C:\Users\Milie\Desktop\EIDD\3A\TempsReelADA\base\game_support\stm32f4\obj\stm32f4-spi.o
 .comment       0x000000000000003d       0x3e C:\Users\Milie\Desktop\EIDD\3A\TempsReelADA\base\game_support\stm32f4\obj\stm32f4-timers.o
 .comment       0x000000000000003d       0x3e C:\Users\Milie\Desktop\EIDD\3A\TempsReelADA\base\game_support\stm32f4\obj\stm32f4-usarts.o
 .comment       0x000000000000003d       0x3e C:\Users\Milie\Desktop\EIDD\3A\TempsReelADA\base\game_support\stm32f4\obj\stm32f429_discovery.o
 .comment       0x000000000000003d       0x3e C:\Users\Milie\Desktop\EIDD\3A\TempsReelADA\base\game_support\stm32f4\obj\stm32f4-sdram.o
 .comment       0x000000000000003d       0x3e C:\Users\Milie\Desktop\EIDD\3A\TempsReelADA\base\game_support\stm32f4\obj\stm32f4-lcd.o
 .comment       0x000000000000003d       0x3e C:\Users\Milie\Desktop\EIDD\3A\TempsReelADA\base\game_support\stm32f4\obj\stm32f4-touch_panel.o
 .comment       0x000000000000003d       0x3e C:\Users\Milie\Desktop\EIDD\3A\TempsReelADA\base\game_support\stm32f4\obj\screen_interface.o
 .comment       0x000000000000003d       0x3e C:\Users\Milie\Desktop\EIDD\3A\TempsReelADA\base\game_support\stm32f4\obj\fonts.o
 .comment       0x000000000000003d       0x3e C:\Users\Milie\Desktop\EIDD\3A\TempsReelADA\base\game_support\obj\display-basic.o
 .comment       0x000000000000003d       0x3e C:\gnat\2018-arm-elf\arm-eabi\lib\gnat\ravenscar-sfp-stm32f429disco\adalib\libgnarl.a(a-reatim.o)
 .comment       0x000000000000003d       0x3e C:\gnat\2018-arm-elf\arm-eabi\lib\gnat\ravenscar-sfp-stm32f429disco\adalib\libgnarl.a(a-retide.o)
 .comment       0x000000000000003d       0x3e C:\gnat\2018-arm-elf\arm-eabi\lib\gnat\ravenscar-sfp-stm32f429disco\adalib\libgnarl.a(s-bbbosu.o)
 .comment       0x000000000000003d       0x3e C:\gnat\2018-arm-elf\arm-eabi\lib\gnat\ravenscar-sfp-stm32f429disco\adalib\libgnarl.a(s-bbcppr.o)
 .comment       0x000000000000003d       0x3e C:\gnat\2018-arm-elf\arm-eabi\lib\gnat\ravenscar-sfp-stm32f429disco\adalib\libgnarl.a(s-bbinte.o)
 .comment       0x000000000000003d       0x3e C:\gnat\2018-arm-elf\arm-eabi\lib\gnat\ravenscar-sfp-stm32f429disco\adalib\libgnarl.a(s-bbthqu.o)
 .comment       0x000000000000003d       0x3e C:\gnat\2018-arm-elf\arm-eabi\lib\gnat\ravenscar-sfp-stm32f429disco\adalib\libgnarl.a(s-bbtime.o)
 .comment       0x000000000000003d       0x3e C:\gnat\2018-arm-elf\arm-eabi\lib\gnat\ravenscar-sfp-stm32f429disco\adalib\libgnarl.a(s-bcpcst.o)
 .comment       0x000000000000003d       0x3e C:\gnat\2018-arm-elf\arm-eabi\lib\gnat\ravenscar-sfp-stm32f429disco\adalib\libgnarl.a(s-taskin.o)
 .comment       0x000000000000003d       0x3e C:\gnat\2018-arm-elf\arm-eabi\lib\gnat\ravenscar-sfp-stm32f429disco\adalib\libgnarl.a(s-bbprot.o)
 .comment       0x000000000000003d       0x3e C:\gnat\2018-arm-elf\arm-eabi\lib\gnat\ravenscar-sfp-stm32f429disco\adalib\libgnarl.a(s-bbthre.o)
 .comment       0x000000000000003d       0x3e C:\gnat\2018-arm-elf\arm-eabi\lib\gnat\ravenscar-sfp-stm32f429disco\adalib\libgnarl.a(s-bbtiev.o)
 .comment       0x000000000000003d       0x3e C:\gnat\2018-arm-elf\arm-eabi\lib\gnat\ravenscar-sfp-stm32f429disco\adalib\libgnarl.a(s-taprop.o)
 .comment       0x000000000000003d       0x3e C:\gnat\2018-arm-elf\arm-eabi\lib\gnat\ravenscar-sfp-stm32f429disco\adalib\libgnarl.a(s-tasdeb.o)
 .comment       0x000000000000003d       0x3e C:\gnat\2018-arm-elf\arm-eabi\lib\gnat\ravenscar-sfp-stm32f429disco\adalib\libgnat.a(a-elchha.o)
 .comment       0x000000000000003d       0x3e C:\gnat\2018-arm-elf\arm-eabi\lib\gnat\ravenscar-sfp-stm32f429disco\adalib\libgnat.a(a-except.o)
 .comment       0x000000000000003d       0x3e C:\gnat\2018-arm-elf\arm-eabi\lib\gnat\ravenscar-sfp-stm32f429disco\adalib\libgnat.a(g-io.o)
 .comment       0x000000000000003d       0x3e C:\gnat\2018-arm-elf\arm-eabi\lib\gnat\ravenscar-sfp-stm32f429disco\adalib\libgnat.a(s-macres.o)
 .comment       0x000000000000003d       0x3e C:\gnat\2018-arm-elf\arm-eabi\lib\gnat\ravenscar-sfp-stm32f429disco\adalib\libgnat.a(s-memcop.o)
 .comment       0x000000000000003d       0x3e C:\gnat\2018-arm-elf\arm-eabi\lib\gnat\ravenscar-sfp-stm32f429disco\adalib\libgnat.a(s-memmov.o)
 .comment       0x000000000000003d       0x3e C:\gnat\2018-arm-elf\arm-eabi\lib\gnat\ravenscar-sfp-stm32f429disco\adalib\libgnat.a(s-memset.o)
 .comment       0x000000000000003d       0x3e C:\gnat\2018-arm-elf\arm-eabi\lib\gnat\ravenscar-sfp-stm32f429disco\adalib\libgnat.a(s-parame.o)
 .comment       0x000000000000003d       0x3e C:\gnat\2018-arm-elf\arm-eabi\lib\gnat\ravenscar-sfp-stm32f429disco\adalib\libgnat.a(s-secsta.o)
 .comment       0x000000000000003d       0x3e C:\gnat\2018-arm-elf\arm-eabi\lib\gnat\ravenscar-sfp-stm32f429disco\adalib\libgnat.a(s-textio.o)
 .comment       0x000000000000003d       0x3e C:\gnat\2018-arm-elf\arm-eabi\lib\gnat\ravenscar-sfp-stm32f429disco\adalib\libgnat.a(s-semiho.o)
 .comment       0x000000000000003d       0x3e C:\gnat\2018-arm-elf\arm-eabi\lib\gnat\ravenscar-sfp-stm32f429disco\adalib\libgnat.a(setup_pll.o)
 .comment       0x000000000000003d       0x3e C:\gnat\2018-arm-elf\arm-eabi\lib\gnat\ravenscar-sfp-stm32f429disco\adalib\libgnat.a(s-bbmcpa.o)
 .comment       0x000000000000003d       0x3e c:/gnat/2018-arm-elf/bin/../lib/gcc/arm-eabi/7.3.1/thumb/v7e-m/fpv4-sp/hard\libgcc.a(_udivmoddi4.o)

.ARM.attributes
                0x0000000000000000       0x37
 .ARM.attributes
                0x0000000000000000       0x37 main.o
 .ARM.attributes
                0x0000000000000037       0x37 b__main.o
 .ARM.attributes
                0x000000000000006e       0x37 C:\Users\Milie\Desktop\EIDD\3A\TempsReelADA\base\game_support\obj\display.o
 .ARM.attributes
                0x00000000000000a5       0x37 C:\Users\Milie\Desktop\EIDD\3A\TempsReelADA\base\game_support\stm32f4\obj\stm32f4.o
 .ARM.attributes
                0x00000000000000dc       0x37 C:\Users\Milie\Desktop\EIDD\3A\TempsReelADA\base\game_support\stm32f4\obj\stm32f4-dma.o
 .ARM.attributes
                0x0000000000000113       0x37 C:\Users\Milie\Desktop\EIDD\3A\TempsReelADA\base\game_support\stm32f4\obj\stm32f4-fmc.o
 .ARM.attributes
                0x000000000000014a       0x37 C:\Users\Milie\Desktop\EIDD\3A\TempsReelADA\base\game_support\stm32f4\obj\stm32f4-rcc.o
 .ARM.attributes
                0x0000000000000181       0x37 C:\Users\Milie\Desktop\EIDD\3A\TempsReelADA\base\game_support\stm32f4\obj\stm32f4-syscfg.o
 .ARM.attributes
                0x00000000000001b8       0x37 C:\Users\Milie\Desktop\EIDD\3A\TempsReelADA\base\game_support\stm32f4\obj\stm32f4-gpio.o
 .ARM.attributes
                0x00000000000001ef       0x37 C:\Users\Milie\Desktop\EIDD\3A\TempsReelADA\base\game_support\stm32f4\obj\stm32f4-i2c.o
 .ARM.attributes
                0x0000000000000226       0x37 C:\Users\Milie\Desktop\EIDD\3A\TempsReelADA\base\game_support\stm32f4\obj\stm32f4-spi.o
 .ARM.attributes
                0x000000000000025d       0x37 C:\Users\Milie\Desktop\EIDD\3A\TempsReelADA\base\game_support\stm32f4\obj\stm32f4-timers.o
 .ARM.attributes
                0x0000000000000294       0x37 C:\Users\Milie\Desktop\EIDD\3A\TempsReelADA\base\game_support\stm32f4\obj\stm32f4-usarts.o
 .ARM.attributes
                0x00000000000002cb       0x37 C:\Users\Milie\Desktop\EIDD\3A\TempsReelADA\base\game_support\stm32f4\obj\stm32f429_discovery.o
 .ARM.attributes
                0x0000000000000302       0x37 C:\Users\Milie\Desktop\EIDD\3A\TempsReelADA\base\game_support\stm32f4\obj\stm32f4-sdram.o
 .ARM.attributes
                0x0000000000000339       0x37 C:\Users\Milie\Desktop\EIDD\3A\TempsReelADA\base\game_support\stm32f4\obj\stm32f4-lcd.o
 .ARM.attributes
                0x0000000000000370       0x37 C:\Users\Milie\Desktop\EIDD\3A\TempsReelADA\base\game_support\stm32f4\obj\stm32f4-touch_panel.o
 .ARM.attributes
                0x00000000000003a7       0x37 C:\Users\Milie\Desktop\EIDD\3A\TempsReelADA\base\game_support\stm32f4\obj\screen_interface.o
 .ARM.attributes
                0x00000000000003de       0x37 C:\Users\Milie\Desktop\EIDD\3A\TempsReelADA\base\game_support\stm32f4\obj\fonts.o
 .ARM.attributes
                0x0000000000000415       0x37 C:\Users\Milie\Desktop\EIDD\3A\TempsReelADA\base\game_support\obj\display-basic.o
 .ARM.attributes
                0x000000000000044c       0x37 C:\gnat\2018-arm-elf\arm-eabi\lib\gnat\ravenscar-sfp-stm32f429disco\adalib\libgnarl.a(a-reatim.o)
 .ARM.attributes
                0x0000000000000483       0x37 C:\gnat\2018-arm-elf\arm-eabi\lib\gnat\ravenscar-sfp-stm32f429disco\adalib\libgnarl.a(a-retide.o)
 .ARM.attributes
                0x00000000000004ba       0x37 C:\gnat\2018-arm-elf\arm-eabi\lib\gnat\ravenscar-sfp-stm32f429disco\adalib\libgnarl.a(s-bbbosu.o)
 .ARM.attributes
                0x00000000000004f1       0x37 C:\gnat\2018-arm-elf\arm-eabi\lib\gnat\ravenscar-sfp-stm32f429disco\adalib\libgnarl.a(s-bbcppr.o)
 .ARM.attributes
                0x0000000000000528       0x37 C:\gnat\2018-arm-elf\arm-eabi\lib\gnat\ravenscar-sfp-stm32f429disco\adalib\libgnarl.a(s-bbinte.o)
 .ARM.attributes
                0x000000000000055f       0x37 C:\gnat\2018-arm-elf\arm-eabi\lib\gnat\ravenscar-sfp-stm32f429disco\adalib\libgnarl.a(s-bbthqu.o)
 .ARM.attributes
                0x0000000000000596       0x37 C:\gnat\2018-arm-elf\arm-eabi\lib\gnat\ravenscar-sfp-stm32f429disco\adalib\libgnarl.a(s-bbtime.o)
 .ARM.attributes
                0x00000000000005cd       0x37 C:\gnat\2018-arm-elf\arm-eabi\lib\gnat\ravenscar-sfp-stm32f429disco\adalib\libgnarl.a(s-bcpcst.o)
 .ARM.attributes
                0x0000000000000604       0x37 C:\gnat\2018-arm-elf\arm-eabi\lib\gnat\ravenscar-sfp-stm32f429disco\adalib\libgnarl.a(s-taskin.o)
 .ARM.attributes
                0x000000000000063b       0x25 C:\gnat\2018-arm-elf\arm-eabi\lib\gnat\ravenscar-sfp-stm32f429disco\adalib\libgnarl.a(handler.o)
 .ARM.attributes
                0x0000000000000660       0x37 C:\gnat\2018-arm-elf\arm-eabi\lib\gnat\ravenscar-sfp-stm32f429disco\adalib\libgnarl.a(s-bbprot.o)
 .ARM.attributes
                0x0000000000000697       0x37 C:\gnat\2018-arm-elf\arm-eabi\lib\gnat\ravenscar-sfp-stm32f429disco\adalib\libgnarl.a(s-bbthre.o)
 .ARM.attributes
                0x00000000000006ce       0x37 C:\gnat\2018-arm-elf\arm-eabi\lib\gnat\ravenscar-sfp-stm32f429disco\adalib\libgnarl.a(s-bbtiev.o)
 .ARM.attributes
                0x0000000000000705       0x37 C:\gnat\2018-arm-elf\arm-eabi\lib\gnat\ravenscar-sfp-stm32f429disco\adalib\libgnarl.a(s-taprop.o)
 .ARM.attributes
                0x000000000000073c       0x37 C:\gnat\2018-arm-elf\arm-eabi\lib\gnat\ravenscar-sfp-stm32f429disco\adalib\libgnarl.a(s-tasdeb.o)
 .ARM.attributes
                0x0000000000000773       0x37 C:\gnat\2018-arm-elf\arm-eabi\lib\gnat\ravenscar-sfp-stm32f429disco\adalib\libgnat.a(a-elchha.o)
 .ARM.attributes
                0x00000000000007aa       0x37 C:\gnat\2018-arm-elf\arm-eabi\lib\gnat\ravenscar-sfp-stm32f429disco\adalib\libgnat.a(a-except.o)
 .ARM.attributes
                0x00000000000007e1       0x25 C:\gnat\2018-arm-elf\arm-eabi\lib\gnat\ravenscar-sfp-stm32f429disco\adalib\libgnat.a(breakpoint_handler-cortexm.o)
 .ARM.attributes
                0x0000000000000806       0x37 C:\gnat\2018-arm-elf\arm-eabi\lib\gnat\ravenscar-sfp-stm32f429disco\adalib\libgnat.a(g-io.o)
 .ARM.attributes
                0x000000000000083d       0x37 C:\gnat\2018-arm-elf\arm-eabi\lib\gnat\ravenscar-sfp-stm32f429disco\adalib\libgnat.a(s-macres.o)
 .ARM.attributes
                0x0000000000000874       0x37 C:\gnat\2018-arm-elf\arm-eabi\lib\gnat\ravenscar-sfp-stm32f429disco\adalib\libgnat.a(s-memcop.o)
 .ARM.attributes
                0x00000000000008ab       0x37 C:\gnat\2018-arm-elf\arm-eabi\lib\gnat\ravenscar-sfp-stm32f429disco\adalib\libgnat.a(s-memmov.o)
 .ARM.attributes
                0x00000000000008e2       0x37 C:\gnat\2018-arm-elf\arm-eabi\lib\gnat\ravenscar-sfp-stm32f429disco\adalib\libgnat.a(s-memset.o)
 .ARM.attributes
                0x0000000000000919       0x37 C:\gnat\2018-arm-elf\arm-eabi\lib\gnat\ravenscar-sfp-stm32f429disco\adalib\libgnat.a(s-parame.o)
 .ARM.attributes
                0x0000000000000950       0x37 C:\gnat\2018-arm-elf\arm-eabi\lib\gnat\ravenscar-sfp-stm32f429disco\adalib\libgnat.a(s-secsta.o)
 .ARM.attributes
                0x0000000000000987       0x37 C:\gnat\2018-arm-elf\arm-eabi\lib\gnat\ravenscar-sfp-stm32f429disco\adalib\libgnat.a(s-textio.o)
 .ARM.attributes
                0x00000000000009be       0x25 C:\gnat\2018-arm-elf\arm-eabi\lib\gnat\ravenscar-sfp-stm32f429disco\adalib\libgnat.a(start-rom.o)
 .ARM.attributes
                0x00000000000009e3       0x37 C:\gnat\2018-arm-elf\arm-eabi\lib\gnat\ravenscar-sfp-stm32f429disco\adalib\libgnat.a(s-semiho.o)
 .ARM.attributes
                0x0000000000000a1a       0x37 C:\gnat\2018-arm-elf\arm-eabi\lib\gnat\ravenscar-sfp-stm32f429disco\adalib\libgnat.a(setup_pll.o)
 .ARM.attributes
                0x0000000000000a51       0x25 C:\gnat\2018-arm-elf\arm-eabi\lib\gnat\ravenscar-sfp-stm32f429disco\adalib\libgnat.a(start-common.o)
 .ARM.attributes
                0x0000000000000a76       0x37 C:\gnat\2018-arm-elf\arm-eabi\lib\gnat\ravenscar-sfp-stm32f429disco\adalib\libgnat.a(s-bbmcpa.o)
 .ARM.attributes
                0x0000000000000aad       0x22 c:/gnat/2018-arm-elf/bin/../lib/gcc/arm-eabi/7.3.1/thumb/v7e-m/fpv4-sp/hard\libgcc.a(_arm_addsubdf3.o)
 .ARM.attributes
                0x0000000000000acf       0x22 c:/gnat/2018-arm-elf/bin/../lib/gcc/arm-eabi/7.3.1/thumb/v7e-m/fpv4-sp/hard\libgcc.a(_arm_fixdfsi.o)
 .ARM.attributes
                0x0000000000000af1       0x22 c:/gnat/2018-arm-elf/bin/../lib/gcc/arm-eabi/7.3.1/thumb/v7e-m/fpv4-sp/hard\libgcc.a(_aeabi_ldivmod.o)
 .ARM.attributes
                0x0000000000000b13       0x22 c:/gnat/2018-arm-elf/bin/../lib/gcc/arm-eabi/7.3.1/thumb/v7e-m/fpv4-sp/hard\libgcc.a(_aeabi_uldivmod.o)
 .ARM.attributes
                0x0000000000000b35       0x34 c:/gnat/2018-arm-elf/bin/../lib/gcc/arm-eabi/7.3.1/thumb/v7e-m/fpv4-sp/hard\libgcc.a(_udivmoddi4.o)
 .ARM.attributes
                0x0000000000000b69       0x22 c:/gnat/2018-arm-elf/bin/../lib/gcc/arm-eabi/7.3.1/thumb/v7e-m/fpv4-sp/hard\libgcc.a(_dvmd_tls.o)

.gnu.attributes
 *(.gnu.attributes)

/DISCARD/
 *(.note.GNU-stack)
 *(.gnu_debuglink)
 *(.gnu.lto_*)
OUTPUT(main elf32-littlearm)
